
RiRead.elf:     file format elf32-avr

Sections:
Idx Name          Size      VMA       LMA       File off  Algn
  0 .text         000045ce  00000000  00000000  000000b4  2**1
                  CONTENTS, ALLOC, LOAD, READONLY, CODE
  1 .data         00000188  00800060  000045ce  00004682  2**0
                  CONTENTS, ALLOC, LOAD, DATA
  2 .bss          00000105  008001e8  008001e8  0000480a  2**0
                  ALLOC
  3 .eeprom       00000002  00810000  00810000  0000480a  2**0
                  CONTENTS, ALLOC, LOAD, DATA
  4 .stab         00000cfc  00000000  00000000  0000480c  2**2
                  CONTENTS, READONLY, DEBUGGING
  5 .stabstr      0000043e  00000000  00000000  00005508  2**0
                  CONTENTS, READONLY, DEBUGGING
  6 .comment      0000002f  00000000  00000000  00005946  2**0
                  CONTENTS, READONLY
  7 .debug_aranges 00000238  00000000  00000000  00005975  2**0
                  CONTENTS, READONLY, DEBUGGING
  8 .debug_info   000059a7  00000000  00000000  00005bad  2**0
                  CONTENTS, READONLY, DEBUGGING
  9 .debug_abbrev 00000b38  00000000  00000000  0000b554  2**0
                  CONTENTS, READONLY, DEBUGGING
 10 .debug_line   00001023  00000000  00000000  0000c08c  2**0
                  CONTENTS, READONLY, DEBUGGING
 11 .debug_frame  000008b8  00000000  00000000  0000d0b0  2**2
                  CONTENTS, READONLY, DEBUGGING
 12 .debug_str    000008b0  00000000  00000000  0000d968  2**0
                  CONTENTS, READONLY, DEBUGGING
 13 .debug_loc    00003aab  00000000  00000000  0000e218  2**0
                  CONTENTS, READONLY, DEBUGGING
 14 .debug_ranges 00000298  00000000  00000000  00011cc3  2**0
                  CONTENTS, READONLY, DEBUGGING

Disassembly of section .text:

00000000 <__vectors>:
       0:	0c 94 ae 0d 	jmp	0x1b5c	; 0x1b5c <__ctors_end>
       4:	0c 94 55 1e 	jmp	0x3caa	; 0x3caa <__vector_1>
       8:	0c 94 cb 0d 	jmp	0x1b96	; 0x1b96 <__bad_interrupt>
       c:	0c 94 cb 0d 	jmp	0x1b96	; 0x1b96 <__bad_interrupt>
      10:	0c 94 cb 0d 	jmp	0x1b96	; 0x1b96 <__bad_interrupt>
      14:	0c 94 cb 0d 	jmp	0x1b96	; 0x1b96 <__bad_interrupt>
      18:	0c 94 cb 0d 	jmp	0x1b96	; 0x1b96 <__bad_interrupt>
      1c:	0c 94 cb 0d 	jmp	0x1b96	; 0x1b96 <__bad_interrupt>
      20:	0c 94 cb 0d 	jmp	0x1b96	; 0x1b96 <__bad_interrupt>
      24:	0c 94 cb 0d 	jmp	0x1b96	; 0x1b96 <__bad_interrupt>
      28:	0c 94 cb 0d 	jmp	0x1b96	; 0x1b96 <__bad_interrupt>
      2c:	0c 94 cb 0d 	jmp	0x1b96	; 0x1b96 <__bad_interrupt>
      30:	0c 94 cb 0d 	jmp	0x1b96	; 0x1b96 <__bad_interrupt>
      34:	0c 94 cb 0d 	jmp	0x1b96	; 0x1b96 <__bad_interrupt>
      38:	0c 94 cb 0d 	jmp	0x1b96	; 0x1b96 <__bad_interrupt>
      3c:	0c 94 cb 0d 	jmp	0x1b96	; 0x1b96 <__bad_interrupt>
      40:	0c 94 cb 0d 	jmp	0x1b96	; 0x1b96 <__bad_interrupt>
      44:	0c 94 cb 0d 	jmp	0x1b96	; 0x1b96 <__bad_interrupt>
      48:	0c 94 cb 0d 	jmp	0x1b96	; 0x1b96 <__bad_interrupt>
      4c:	0c 94 cb 0d 	jmp	0x1b96	; 0x1b96 <__bad_interrupt>
      50:	0c 94 cb 0d 	jmp	0x1b96	; 0x1b96 <__bad_interrupt>

00000054 <ft18x34>:
      54:	1b 08 10 21 01 20 f9 0a 02 06 0a 09 0e 09 03 06     ...!. ..........
      64:	06 07 08 03 07 03 07 0a 0a 0a 0a 0a 0a 0a 0a 0a     ................
      74:	0a 03 03 06 07 06 09 0f 0a 0a 0a 0a 09 08 0b 0a     ................
      84:	02 06 0a 08 0f 0c 0c 0a 0c 0a 0b 0a 0a 0c 0e 0b     ................
      94:	0c 0a 04 08 04 08 09 05 09 09 08 09 0a 07 0a 09     ................
      a4:	02 03 0a 02 0e 09 09 09 09 06 09 07 09 09 0e 09     ................
      b4:	09 08 06 02 06 0a 00 00 00 00 00 00 00 00 00 00     ................
	...
      dc:	0a 09 09 0a 0a 0d 07 09 0c 0b 0b 0e 0e 0c 0c 0a     ................
      ec:	0d 0f 0f 0a 0a 09 0c 09 0d 0c 0c 09 09 0d 0d 0c     ................
      fc:	0a 09 09 09 09 0c 08 0b 0e 0a 0c 0d 09 0a 09 08     ................
     10c:	09 07 07 0a 0a 0a 0a 04 05 03 00 00 00 00 08 05     ................
     11c:	0a 08 08 09 07 08 08 02 08 09 06 07 00 00 00 0b     ................
     12c:	0b 0d 0a 0c 0c 0c 0d 0c 0e 00 00 00 00 00 00 00     ................
	...
     15c:	00 00 00 c0 ff 0d 00 80 ff 1b 00 00 08 00 00 00     ................
     16c:	0e 00 00 00 04 00 00 00 60 00 00 00 70 00 00 00     ........`...p...
     17c:	20 00 00 00 00 44 00 00 00 88 1f 00 00 f0 07 00      ....D..........
     18c:	00 7c 02 00 00 4c 04 00 00 80 e8 01 00 00 7f 00     .|...L..........
     19c:	00 c0 2f 00 00 c0 45 00 00 00 88 00 00 00 38 0c     ../...E.......8.
     1ac:	00 00 f8 38 00 00 18 c3 00 00 30 06 01 00 f0 ff     ...8......0.....
     1bc:	0f 00 c0 10 04 00 80 61 0c 00 00 8e 0f 00 00 18     .......a........
     1cc:	0e 00 00 78 00 00 00 f8 01 00 00 08 04 01 00 10     ...x............
     1dc:	08 03 00 c0 8f 01 00 00 8f 01 00 00 c0 00 00 00     ................
     1ec:	c0 00 00 00 60 3c 00 00 60 fc 00 00 30 04 02 00     ....`<..`...0...
     1fc:	20 08 04 00 00 e0 07 00 00 80 07 00 00 80 07 00      ...............
     20c:	00 bc 1f 00 00 fc 43 00 00 18 87 00 00 b0 1b 01     ......C.........
     21c:	00 c0 63 02 00 00 80 07 00 00 80 0f 00 00 00 1b     ..c.............
     22c:	00 00 08 00 00 00 0e 00 00 00 04 00 00 00 c0 7f     ................
     23c:	00 00 e0 ff 07 00 f0 00 1e 00 70 00 e0 00 30 00     ..........p...0.
     24c:	80 03 30 00 00 0c 20 00 00 18 80 01 00 18 00 06     ..0... .........
     25c:	00 1c 00 78 00 1f 00 c0 ff 0f 00 00 fe 03 00 80     ...x............
     26c:	0d 00 00 00 1a 00 00 00 08 00 00 00 fe 01 00 00     ................
     27c:	20 00 00 00 a0 00 00 00 60 03 00 00 00 20 00 00      .......`.... ..
     28c:	00 40 00 00 00 80 00 00 00 f0 1f 00 00 e0 3f 00     .@............?.
     29c:	00 00 04 00 00 00 08 00 00 00 10 00 00 00 00 4c     ...............L
     2ac:	00 00 00 58 00 00 00 70 00 00 00 01 00 00 00 02     ...X...p........
     2bc:	00 00 00 04 00 00 00 08 00 00 00 10 00 00 00 20     ............... 
     2cc:	00 00 00 40 00 00 00 00 30 00 00 00 70 00 00 00     ...@....0...p...
     2dc:	c0 00 00 00 c0 01 00 00 c0 00 00 00 60 00 00 00     ............`...
     2ec:	70 00 00 00 30 00 00 00 18 00 00 00 1c 00 00 00     p...0...........
     2fc:	e0 1f 00 00 e0 7f 00 00 60 80 01 00 60 00 06 00     ........`...`...
     30c:	40 00 08 00 80 00 10 00 00 03 30 00 00 0c 30 00     @.........0...0.
     31c:	00 f0 3f 00 00 c0 1f 00 00 00 00 00 00 00 00 00     ..?.............
     32c:	00 00 03 00 00 00 03 00 00 00 03 00 00 00 fe 7f     ................
     33c:	00 00 fc ff 00 00 00 00 00 00 00 00 00 00 00 00     ................
     34c:	00 00 00 06 0f 00 00 0f 1f 00 00 03 23 00 00 02     ............#...
     35c:	47 00 00 04 86 00 00 08 0e 01 00 10 0c 02 00 60     G..............`
     36c:	1c 04 00 80 1f 08 00 00 1e 10 00 00 08 0c 00 00     ................
     37c:	1c 38 00 00 0c c0 00 00 08 00 01 00 10 04 02 00     .8..............
     38c:	20 08 04 00 40 10 08 00 80 51 18 00 00 be 19 00      ...@....Q......
     39c:	00 3c 3e 00 00 00 0c 00 00 00 1e 00 00 00 26 00     .<>...........&.
     3ac:	00 00 46 00 00 00 87 00 00 00 03 01 00 00 03 02     ..F.............
     3bc:	00 00 fe 7f 00 00 fc ff 00 00 00 10 00 00 80 c3     ................
     3cc:	00 00 e0 87 03 00 40 04 0c 00 80 04 10 00 00 09     ......@.........
     3dc:	20 00 00 12 40 00 00 24 80 00 00 c8 c1 01 00 10      ...@..$........
     3ec:	ff 01 00 00 fc 00 00 00 fe 01 00 00 fe 0f 00 00     ................
     3fc:	22 10 00 00 22 40 00 00 44 80 00 00 88 00 01 00     "..."@..D.......
     40c:	10 01 02 00 60 06 06 00 80 f9 07 00 00 e2 07 00     ....`...........
     41c:	00 01 00 00 00 02 00 00 00 04 80 00 00 08 f0 01     ................
     42c:	00 10 f8 03 00 20 3c 00 00 40 1e 00 00 80 0e 00     ..... <..@......
     43c:	00 00 07 00 00 00 06 00 00 00 70 3c 00 00 f0 fd     ..........p<....
     44c:	00 00 30 0a 01 00 20 08 04 00 40 10 08 00 80 20     ..0... ...@.... 
     45c:	10 00 00 41 20 00 00 46 21 00 00 f8 7e 00 00 e0     ...A ..F!...~...
     46c:	78 00 00 c0 c7 00 00 c0 9f 03 00 c0 60 0c 00 80     x...........`...
     47c:	80 10 00 00 01 21 00 00 02 42 00 00 04 c6 00 00     .....!...B......
     48c:	30 c6 00 00 e0 ff 00 00 00 7f 00 00 80 01 0c 00     0...............
     49c:	00 07 1c 00 00 06 30 00 00 08 60 02 00 38 c0 02     ......0...`..8..
     4ac:	00 20 80 03 00 00 08 00 00 00 28 00 00 00 d8 00     . ........(.....
     4bc:	00 00 10 01 00 00 10 04 00 00 30 18 00 00 80 08     ..........0.....
     4cc:	00 00 00 11 00 00 00 22 00 00 00 44 00 00 00 88     ......."...D....
     4dc:	00 00 00 10 01 00 00 20 02 00 00 30 18 00 00 40     ....... ...0...@
     4ec:	10 00 00 00 11 00 00 00 36 00 00 00 28 00 00 00     ........6...(...
     4fc:	20 00 00 00 0e 00 00 00 1e 00 00 00 06 00 00 00      ...............
     50c:	04 00 00 00 08 bc 01 00 10 7c 03 00 20 0c 00 00     .........|.. ...
     51c:	80 08 00 00 00 0f 00 00 00 e0 03 00 00 f0 0f 00     ................
     52c:	00 70 30 00 00 20 c0 00 00 20 3c 01 00 40 fc 04     .p0.. ... <..@..
     53c:	00 40 06 09 00 80 0c 11 00 00 19 23 00 00 e2 4f     .@.........#...O
     54c:	00 00 cc d1 00 00 90 20 01 00 60 20 00 00 80 73     ....... ..` ...s
     55c:	00 00 00 3c 00 00 00 00 1e 00 00 80 07 00 00 e0     ...<............
     56c:	07 00 00 f8 08 00 00 38 10 00 00 f0 20 00 00 c0     .......8.... ...
     57c:	4f 00 00 00 fc 00 00 00 c0 0f 00 00 00 3c 00 00     O............<..
     58c:	fe 7f 00 00 fc ff 00 00 08 02 01 00 10 04 02 00     ................
     59c:	20 08 04 00 40 10 08 00 80 20 10 00 00 b7 30 00      ...@.... ....0.
     5ac:	00 7c 3f 00 00 20 3c 00 00 80 1f 00 00 c0 ff 00     .|?.. <.........
     5bc:	00 c0 81 03 00 c0 00 0c 00 80 00 10 00 00 01 20     ............... 
     5cc:	00 00 02 40 00 00 04 80 00 00 10 80 00 00 e0 e0     ...@............
     5dc:	01 00 e0 ff 07 00 c0 ff 0f 00 80 00 10 00 00 01     ................
     5ec:	20 00 00 02 40 00 00 04 80 00 00 10 80 00 00 e0      ...@...........
     5fc:	c0 01 00 80 ff 01 00 00 fc 00 00 80 ff 1f 00 00     ................
     60c:	ff 3f 00 00 82 40 00 00 04 81 00 00 08 02 01 00     .?...@..........
     61c:	10 04 02 00 20 08 04 00 40 10 08 00 80 00 10 00     .... ...@.......
     62c:	00 ff 3f 00 00 fe 7f 00 00 04 01 00 00 08 02 00     ..?.............
     63c:	00 10 04 00 00 20 08 00 00 40 10 00 00 80 00 00     ..... ...@......
     64c:	00 00 f0 03 00 00 f8 1f 00 00 38 70 00 00 10 80     ..........8p....
     65c:	00 00 10 00 02 00 20 00 04 00 40 20 08 00 80 41     ...... ...@ ...A
     66c:	18 00 00 86 18 00 00 1c 3f 00 00 20 fe 00 00 f8     ........?.. ....
     67c:	ff 01 00 f0 ff 03 00 00 08 00 00 00 10 00 00 00     ................
     68c:	20 00 00 00 40 00 00 00 80 00 00 00 00 01 00 00      ...@...........
     69c:	f8 ff 01 00 f0 ff 03 00 e0 ff 07 00 c0 ff 0f 00     ................
     6ac:	00 00 10 00 00 00 20 00 00 00 40 00 00 00 c0 00     ...... ...@.....
     6bc:	00 f8 ff 00 00 f0 ff 00 00 e0 ff 07 00 c0 ff 0f     ................
     6cc:	00 00 c0 01 00 00 c0 00 00 00 c0 00 00 00 e0 01     ................
     6dc:	00 00 60 0e 00 00 60 78 00 00 60 c0 03 00 40 00     ..`...`x..`...@.
     6ec:	0e 00 80 ff 1f 00 00 ff 3f 00 00 00 40 00 00 00     ........?...@...
     6fc:	80 00 00 00 00 01 00 00 00 02 00 00 00 04 00 00     ................
     70c:	00 08 00 80 ff 1f 00 00 ff 3f 00 00 0e 00 00 00     .........?......
     71c:	78 00 00 00 c0 07 00 00 00 3c 00 00 00 e0 03 00     x........<......
     72c:	00 00 0e 00 00 00 0f 00 00 80 03 00 00 e0 01 00     ................
     73c:	00 70 00 00 00 18 00 00 00 f0 ff 03 00 e0 ff 07     .p..............
     74c:	00 c0 ff 0f 00 80 ff 1f 00 00 03 00 00 00 1c 00     ................
     75c:	00 00 60 00 00 00 80 03 00 00 00 1c 00 00 00 70     ..`............p
     76c:	00 00 00 80 03 00 00 00 1c 00 00 ff 3f 00 00 fe     ............?...
     77c:	7f 00 00 c0 0f 00 00 e0 7f 00 00 e0 c0 01 00 40     ...............@
     78c:	00 02 00 40 00 08 00 80 00 10 00 00 01 20 00 00     ...@......... ..
     79c:	02 40 00 00 08 40 00 00 70 e0 00 00 c0 ff 00 00     .@...@..p.......
     7ac:	00 7e 00 00 c0 ff 0f 00 80 ff 1f 00 00 81 00 00     .~..............
     7bc:	00 02 01 00 00 04 02 00 00 08 04 00 00 10 08 00     ................
     7cc:	00 60 18 00 00 80 1f 00 00 00 1e 00 00 00 f0 03     .`..............
     7dc:	00 00 f8 1f 00 00 38 70 00 00 10 80 00 00 10 00     ......8p........
     7ec:	02 00 20 00 04 00 40 00 38 00 80 00 d0 00 00 03     .. ...@.8.......
     7fc:	30 01 00 1c 38 02 00 f0 3f 04 00 80 1f 00 00 f0     0...8...?.......
     80c:	ff 03 00 e0 ff 07 00 40 20 00 00 80 40 00 00 00     .......@ ...@...
     81c:	81 00 00 00 02 01 00 00 04 0e 00 00 18 fe 00 00     ................
     82c:	e0 87 03 00 80 07 04 00 00 0f 03 00 00 3f 0c 00     .............?..
     83c:	00 63 30 00 00 c2 40 00 00 04 83 00 00 08 06 01     .c0...@.........
     84c:	00 10 0c 02 00 60 18 04 00 80 63 04 00 00 c2 0f     .....`....c.....
     85c:	00 00 00 0f 00 00 02 00 00 00 04 00 00 00 08 00     ................
     86c:	00 00 10 00 00 00 e0 ff 07 00 c0 ff 0f 00 80 00     ................
     87c:	00 00 00 01 00 00 00 02 00 00 00 04 00 00 00 f8     ................
     88c:	7f 00 00 f0 ff 01 00 00 00 06 00 00 00 08 00 00     ................
     89c:	00 10 00 00 00 20 00 00 00 40 00 00 00 c0 00 00     ..... ...@......
     8ac:	f8 ff 00 00 f0 ff 00 00 20 00 00 00 c0 03 00 00     ........ .......
     8bc:	00 3f 00 00 00 f0 03 00 00 00 1f 00 00 00 f0 00     .?..............
     8cc:	00 00 c0 01 00 00 f0 00 00 00 7c 00 00 00 1f 00     ..........|.....
     8dc:	00 80 07 00 00 00 01 00 00 00 7e 00 00 00 fc 07     ..........~.....
     8ec:	00 00 00 fe 00 00 00 c0 03 00 00 c0 07 00 00 fe     ................
     8fc:	00 00 80 1f 00 00 00 3f 00 00 00 f0 07 00 00 00     .......?........
     90c:	7e 00 00 00 c0 01 00 00 f0 03 00 e0 7f 00 00 c0     ~...............
     91c:	0f 00 00 80 00 10 00 00 03 30 00 00 0e 38 00 00     .........0...8..
     92c:	70 1c 00 00 c0 0f 00 00 00 0e 00 00 00 7e 00 00     p............~..
     93c:	00 c7 03 00 80 03 0e 00 00 01 38 00 00 00 40 00     ..........8...@.
     94c:	00 04 00 00 00 18 00 00 00 f0 00 00 00 80 07 00     ................
     95c:	00 00 1e 00 00 00 f0 1f 00 00 c0 3f 00 00 e0 00     ...........?....
     96c:	00 00 e0 00 00 00 70 00 00 00 30 00 00 00 20 00     ......p...0... .
     97c:	00 00 40 00 0c 00 80 00 1c 00 00 01 2e 00 00 02     ..@.............
     98c:	4e 00 00 04 87 00 00 88 03 01 00 90 03 02 00 e0     N...............
     99c:	01 04 00 c0 01 08 00 80 00 10 00 00 ff ff 01 00     ................
     9ac:	fe ff 03 00 04 00 04 00 08 00 08 00 30 00 00 00     ............0...
     9bc:	80 01 00 00 00 0e 00 00 00 30 00 00 00 80 01 00     .........0......
     9cc:	00 00 0e 00 00 00 30 00 00 00 80 01 00 10 00 10     ......0.........
     9dc:	00 20 00 20 00 c0 ff 7f 00 80 ff ff 00 00 80 01     . . ............
     9ec:	00 00 c0 01 00 00 70 00 00 00 38 00 00 00 70 00     ......p...8...p.
     9fc:	00 00 00 03 00 00 00 38 00 00 00 c0 00 00 00 00     .......8........
     a0c:	00 01 00 00 00 02 00 00 00 04 00 00 00 08 00 00     ................
     a1c:	00 10 00 00 00 20 00 00 00 40 00 00 00 80 00 00     ..... ...@......
     a2c:	00 00 01 00 03 00 00 00 06 00 00 00 08 00 00 00     ................
     a3c:	20 00 00 00 40 00 00 00 00 08 07 00 00 38 1f 00      ...@........8..
     a4c:	00 18 33 00 00 10 42 00 00 20 84 00 00 40 08 01     ..3...B.. ...@..
     a5c:	00 80 11 01 00 00 fe 07 00 00 f8 0f 00 80 ff 1f     ................
     a6c:	00 00 ff 1f 00 00 20 20 00 00 20 80 00 00 40 00     ......  .. ...@.
     a7c:	01 00 80 00 02 00 00 07 06 00 00 fc 07 00 00 e0     ................
     a8c:	03 00 00 c0 07 00 00 e0 3f 00 00 e0 e0 00 00 40     ........?......@
     a9c:	00 01 00 80 00 02 00 00 01 04 00 00 04 04 00 00     ................
     aac:	38 06 00 00 c0 07 00 00 e0 3f 00 00 e0 e0 00 00     8........?......
     abc:	40 00 01 00 80 00 02 00 00 01 04 00 00 04 04 00     @...............
     acc:	80 ff 1f 00 00 ff 3f 00 00 80 0f 00 00 80 7f 00     ......?.........
     adc:	00 80 c9 00 00 80 11 03 00 00 21 04 00 00 42 08     ..........!...B.
     aec:	00 00 84 10 00 00 10 31 00 00 e0 33 00 00 00 27     .......1...3...'
     afc:	00 00 40 00 00 00 80 00 00 00 c0 ff 07 00 c0 ff     ..@.............
     b0c:	0f 00 80 04 00 00 00 09 00 00 00 02 00 00 00 00     ................
     b1c:	00 02 00 00 e7 0e 00 00 ff 13 00 00 63 24 00 00     ............c$..
     b2c:	82 48 00 00 04 91 00 00 18 23 01 00 f8 43 02 00     .H.......#...C..
     b3c:	90 83 07 00 00 00 06 00 f0 ff 03 00 e0 ff 07 00     ................
     b4c:	00 08 00 00 00 08 00 00 00 08 00 00 00 10 00 00     ................
     b5c:	00 60 00 00 00 80 ff 01 00 00 fe 03 00 20 ff 07     .`........... ..
     b6c:	00 40 fe 0f 00 00 00 80 00 00 f9 ff 01 00 f2 ff     .@..............
     b7c:	01 00 fc ff 00 00 f8 ff 01 00 00 30 00 00 00 30     ...........0...0
     b8c:	00 00 00 30 00 00 00 f0 01 00 00 30 0f 00 00 30     ...0.......0...0
     b9c:	38 00 00 20 c0 00 00 00 00 01 00 f0 ff 03 00 e0     8.. ............
     bac:	ff 07 00 00 fe 0f 00 00 fc 1f 00 00 10 00 00 00     ................
     bbc:	10 00 00 00 20 00 00 00 c0 00 00 00 00 ff 03 00     .... ...........
     bcc:	00 fc 07 00 00 04 00 00 00 04 00 00 00 08 00 00     ................
     bdc:	00 30 00 00 00 e0 ff 00 00 00 ff 01 00 80 ff 03     .0..............
     bec:	00 00 ff 07 00 00 0c 00 00 00 08 00 00 00 18 00     ................
     bfc:	00 00 30 00 00 00 60 00 00 00 80 ff 01 00 00 fe     ..0...`.........
     c0c:	03 00 00 f8 00 00 00 fc 07 00 00 1c 18 00 00 08     ................
     c1c:	20 00 00 10 40 00 00 20 80 00 00 c0 80 01 00 00      ...@.. ........
     c2c:	ff 01 00 00 f8 00 00 00 fe 7f 00 00 fc ff 00 00     ................
     c3c:	10 18 00 00 10 40 00 00 20 80 00 00 40 00 01 00     .....@.. ...@...
     c4c:	80 81 03 00 00 fe 03 00 00 f0 01 00 00 e0 03 00     ................
     c5c:	00 f0 1f 00 00 70 70 00 00 20 80 00 00 40 00 01     .....pp.. ...@..
     c6c:	00 80 00 02 00 00 02 03 00 00 fc 7f 00 00 fc ff     ................
     c7c:	00 00 f8 3f 00 00 f0 7f 00 00 c0 00 00 00 c0 00     ...?............
     c8c:	00 00 80 00 00 00 00 01 00 00 00 10 02 00 00 78     ...............x
     c9c:	0c 00 00 98 31 00 00 10 43 00 00 20 84 00 00 c0     ....1...C.. ....
     cac:	18 01 00 80 31 02 00 00 e6 03 00 00 90 03 00 00     ....1...........
     cbc:	04 00 00 00 08 00 00 00 fe 3f 00 00 fc ff 00 00     .........?......
     ccc:	40 00 01 00 80 00 02 00 00 00 04 00 00 fe 03 00     @...............
     cdc:	00 fc 0f 00 00 00 30 00 00 00 40 00 00 00 80 00     ......0...@.....
     cec:	00 00 00 01 00 00 80 01 00 00 ff 07 00 00 fe 0f     ................
     cfc:	00 00 04 00 00 00 78 00 00 00 c0 07 00 00 00 7c     ......x........|
     d0c:	00 00 00 c0 01 00 00 c0 03 00 00 f8 00 00 00 3e     ...............>
     d1c:	00 00 00 0c 00 00 00 18 00 00 00 f0 01 00 00 00     ................
     d2c:	1f 00 00 00 f0 01 00 00 c0 03 00 00 f8 00 00 00     ................
     d3c:	3e 00 00 00 7c 00 00 00 c0 07 00 00 00 7c 00 00     >...|........|..
     d4c:	00 f0 00 00 00 7c 00 00 80 0f 00 00 00 03 00 00     .....|..........
     d5c:	00 02 08 00 00 0c 18 00 00 38 1c 00 00 c0 0f 00     .........8......
     d6c:	00 00 0e 00 00 00 3f 00 00 00 c3 01 00 00 01 06     ......?.........
     d7c:	00 00 00 08 00 00 04 80 00 00 78 00 01 00 c0 07     ..........x.....
     d8c:	02 00 00 7c 03 00 00 c0 03 00 00 e0 00 00 00 78     ...|...........x
     d9c:	00 00 00 1e 00 00 00 04 00 00 00 08 30 00 00 10     ............0...
     dac:	70 00 00 20 b8 00 00 40 38 01 00 80 1c 02 00 00     p.. ...@8.......
     dbc:	1f 04 00 00 0e 08 00 00 04 10 00 00 00 01 00 00     ................
     dcc:	00 07 00 00 f8 fb 03 00 f8 e3 0f 00 10 00 10 00     ................
     ddc:	20 00 20 00 c0 ff 0f 00 80 ff 1f 00 00 01 00 01      . .............
     dec:	00 02 00 02 00 fc f1 07 00 f0 f7 07 00 00 38 00     ..............8.
     dfc:	00 00 20 00 00 00 c0 00 00 00 c0 00 00 00 c0 00     .. .............
     e0c:	00 00 80 01 00 00 00 06 00 00 00 08 00 00 00 30     ...............0
     e1c:	00 00 00 40 00 00 00 c0 00 00 00 c0 00 00 00 dc     ...@............
     e2c:	3f 00 00 f8 7f 00 00 c8 00 00 00 90 00 00 00 20     ?.............. 
     e3c:	00 00 00 40 00 00 00 80 00 00 00 00 03 00 00 00     ...@............
     e4c:	fc 3f 00 00 f8 7f 00 00 70 00 00 00 a0 01 00 00     .?......p.......
     e5c:	60 f2 03 00 c0 f4 07 00 80 36 08 00 00 3e 10 00     `........6...>..
     e6c:	00 00 20 00 00 fc 7f 00 00 f8 ff 00 00 e0 01 00     .. .............
     e7c:	00 60 02 00 00 c0 e4 07 00 80 ef 0f 00 00 62 10     .`............b.
     e8c:	00 00 7e 20 00 00 00 40 00 00 f8 ff 00 00 f0 ff     ..~ ...@........
     e9c:	01 00 c0 ff 03 00 80 ff 07 00 80 e1 03 00 00 f1     ................
     eac:	00 00 00 f2 01 00 00 44 02 00 00 88 03 00 00 30     .......D.......0
     ebc:	00 00 00 c0 ff 03 00 80 ff 07 00 00 fe 0f 00 00     ................
     ecc:	fe 1f 00 00 06 0f 00 00 8c 03 00 00 b0 07 00 00     ................
     edc:	60 09 00 00 60 1c 00 00 c0 00 00 00 00 ff 0f 00     `...`...........
     eec:	00 fc 1f 00 00 18 00 00 00 78 00 00 00 98 78 00     .........x....x.
     efc:	00 30 f9 01 00 e0 11 02 00 80 f9 07 00 80 f9 07     .0..............
     f0c:	00 00 9f 00 00 00 00 03 00 00 00 0c 00 00 00 30     ...............0
     f1c:	00 00 f0 ff 01 00 e0 ff 03 00 00 1c 00 00 00 e0     ................
     f2c:	00 00 00 0e 07 00 00 16 30 00 00 24 40 00 00 f8     ........0..$@...
     f3c:	ff 00 00 e0 ff 00 00 c0 00 00 00 80 38 00 00 80     ............8...
     f4c:	58 00 00 00 b1 00 00 00 c2 0f 00 00 04 60 00 00     X............`..
     f5c:	18 80 00 00 f0 ff 01 00 c0 ff 01 00 00 30 00 00     .............0..
     f6c:	00 93 00 00 00 22 01 00 00 c2 3f 00 00 04 7f 00     ....."....?.....
     f7c:	00 08 60 00 00 10 60 00 00 20 e0 01 00 c0 c0 04     ..`...`.. ......
     f8c:	00 00 ff 09 00 00 fe 1e 00 00 00 18 00 00 30 00     ..............0.
     f9c:	00 00 d0 00 00 00 30 f9 01 00 60 fa 03 00 c0 1b     ......0...`.....
     fac:	04 00 00 1b 08 00 00 0c 10 00 00 08 20 00 00 f8     ............ ...
     fbc:	7f 00 00 dc ff 00 00 18 00 00 00 c0 03 00 00 c0     ................
     fcc:	04 00 00 80 c9 0f 00 00 df 1f 00 00 cc 20 00 00     ............. ..
     fdc:	cc 40 00 00 f0 80 00 00 40 00 01 00 c0 ff 03 00     .@......@.......
     fec:	e0 fe 07 00 c0 00 00 00 00 ee 0f 00 00 fe 3f 00     ..............?.
     ffc:	00 64 48 00 00 48 90 00 00 10 c0 00 00 20 00 00     .dH..H....... ..
    100c:	00 c0 80 03 00 00 ff 09 00 00 fe 13 00 00 00 3e     ...............>
    101c:	00 00 00 08 00 00 00 20 00 00 f0 ff 01 00 e0 ff     ....... ........
    102c:	03 00 80 fb 03 00 80 ff 0f 00 00 19 12 00 00 12     ................
    103c:	24 00 00 04 30 00 00 08 00 00 00 30 00 18 00 c0     $...0......0....
    104c:	ff 79 00 80 ff d7 00 00 00 e8 01 00 00 10 02 00     .y..............
    105c:	00 20 04 00 fc 7f 0f 00 f8 7f 0e 00 00 c0 00 00     . ..............
    106c:	00 40 02 00 00 80 e4 00 00 f7 6f 03 00 ff cf 06     .@........o.....
    107c:	00 32 80 05 00 24 00 07 00 08 00 06 00 10 00 18     .2...$..........
    108c:	00 20 00 60 00 80 ff ff 01 00 ff ff 01 00 00 0c     . .`............
    109c:	00 00 00 24 07 00 00 48 0e 00 70 ff 34 00 f0 ff     ...$...H..p.4...
    10ac:	28 00 20 03 7c 00 40 02 38 00 80 00 80 01 00 01     (. .|.@.8.......
    10bc:	c0 00 00 06 00 03 00 f8 ff 0f 00 f0 ff 1f 00 00     ................
    10cc:	00 f0 00 80 01 20 01 80 33 c0 01 80 b5 e0 03 00     ..... ..3.......
    10dc:	29 01 0f 00 d2 03 0c 00 2c 78 17 00 d0 80 4a 00     ).......,x....J.
    10ec:	a0 ff f5 00 60 fe f1 00 80 07 00 00 80 09 00 00     ....`...........
    10fc:	00 13 00 00 00 3a 00 00 00 98 7f 00 00 98 ff 00     .....:..........
    110c:	00 f0 79 00 00 c0 1c 00 00 00 06 00 00 00 03 00     ..y.............
    111c:	00 00 03 00 00 00 fe 3f 00 00 f8 7f 00 00 e0 ff     .......?........
    112c:	00 00 e0 ff 01 00 60 00 03 00 c0 18 01 00 00 5b     ......`........[
    113c:	01 00 00 b6 01 00 00 c6 1d 00 00 0c 7c 00 00 f0     ............|...
    114c:	9f 00 00 c0 3f 01 00 00 e0 01 00 00 80 00 00 00     ....?...........
    115c:	00 02 00 00 ff 1f 00 00 fe 3f 00 00 b8 3f 00 00     .........?...?..
    116c:	f8 ff 00 00 90 21 01 00 20 41 02 00 40 00 03 00     .....!.. A..@...
    117c:	80 00 00 00 00 03 00 00 00 fc 3f 00 00 f8 7f 00     ..........?.....
    118c:	00 00 20 00 00 00 e0 00 00 00 60 03 00 c0 ff 04     .. .......`.....
    119c:	00 80 7f 0d 00 00 00 0e 00 00 fc 3f 00 00 f8 7f     ...........?....
    11ac:	00 00 18 c0 00 00 10 47 00 00 20 7b 00 00 40 76     .......G.. {..@v
    11bc:	00 00 80 38 00 00 00 03 00 00 00 fc 3f 00 00 f8     ...8........?...
    11cc:	7f 00 00 e0 ff 00 00 e0 ff 01 00 60 00 03 00 c0     ...........`....
    11dc:	18 01 00 00 5b 01 00 00 b6 01 00 00 c6 01 00 00     ....[...........
    11ec:	0c 00 00 00 f0 ff 00 00 c0 ff 01 00 c0 fd 01 00     ................
    11fc:	c0 ff 07 00 80 0c 09 00 00 09 1e 00 00 02 10 00     ................
    120c:	00 04 00 00 00 18 00 00 00 e0 ff 01 00 c0 ff 03     ................
    121c:	00 80 03 00 00 80 05 00 00 00 09 00 00 00 fe 3f     ...............?
    122c:	00 00 f8 7f 00 00 00 1e 00 00 00 03 00 00 80 01     ................
    123c:	00 00 80 00 00 00 80 01 00 00 00 ff 1f 00 00 fc     ................
    124c:	3f 00 00 38 3f 00 00 50 fe 00 00 b0 00 01 00 20     ?..8?..P....... 
    125c:	01 02 00 40 02 04 00 80 05 08 00 00 1a 10 00 00     ...@............
    126c:	e4 3f 00 00 cc 3f 00 00 70 00 00 00 b0 00 00 00     .?...?..p.......
    127c:	20 01 00 00 c0 ff 07 00 00 ff 0f 00 00 00 0e 00      ...............
    128c:	00 00 06 00 00 00 06 00 00 00 04 00 00 f0 ff 00     ................
    129c:	00 e0 ff 03 00 00 60 06 00 00 80 07 00 00 0e 00     ......`.........
    12ac:	00 00 16 00 00 00 24 00 00 00 f8 7f 00 00 e0 ff     ......$.........
    12bc:	01 00 00 00 02 00 00 00 04 00 00 00 08 00 00 00     ................
    12cc:	10 00 00 00 20 00 00 fc 7f 00 00 f8 7f 00 00 e0     .... ...........
    12dc:	00 00 00 60 01 00 00 40 02 00 00 80 ff 07 00 00     ...`...@........
    12ec:	fe 1f 00 00 00 20 00 00 00 40 00 00 00 80 00 00     ..... ...@......
    12fc:	00 00 01 00 00 00 02 00 ff ff 07 00 fe ff 07 00     ................
    130c:	00 fe 1f 00 00 fe 3f 00 00 24 70 00 00 78 38 00     ......?..$p..x8.
    131c:	00 00 18 00 00 00 e0 00 00 00 00 07 00 80 ff 0f     ................
    132c:	00 00 ff 1f 00 00 fc 3f 00 00 fc 7f 00 00 48 e0     .......?......H.
    133c:	00 00 f0 70 00 00 00 30 00 00 00 c0 01 00 00 00     ...p...0........
    134c:	0e 00 fc ff 1f 00 f8 ff 3f 00 00 38 00 00 00 58     ........?..8...X
    135c:	00 00 00 90 00 00 00 e0 ff 03 00 80 ff 07 00 00     ................
    136c:	c0 07 00 00 f8 00 00 00 3e 00 00 00 7c 00 00 00     ........>...|...
    137c:	80 0f 00 00 00 f0 00 00 e0 ff 03 00 c0 ff 07 00     ................
    138c:	00 07 00 00 00 0b 00 00 00 12 00 00 00 fc 7f 00     ................
    139c:	00 f0 ff 00 00 00 f8 00 00 00 1f 00 00 c0 03 00     ................
    13ac:	00 80 0f 00 00 00 f0 01 00 00 00 1e 00 f0 ff 7f     ................
    13bc:	00 e0 ff ff 00 00 00 c0 00 00 00 40 02 00 00 80     ...........@....
    13cc:	04 00 00 f7 0f 00 00 ff 0f 00 00 32 00 00 00 24     ...........2...$
    13dc:	00 00 00 08 00 00 00 10 00 00 00 60 00 00 00 80     ...........`....
    13ec:	ff 07 00 00 ff 0f 00 00 0e 0f 00 00 1e 3f 00 00     .............?..
    13fc:	24 42 00 00 f8 ff 00 00 e0 ff 00 00 00 30 00 00     $B...........0..
    140c:	00 c0 00 00 00 00 03 00 00 ff 1f 00 00 fe 3f 00     ..............?.
    141c:	00 78 3c 00 00 78 fd 00 00 10 05 01 00 20 0a 02     .x<..x....... ..
    142c:	00 80 13 04 00 00 00 08 00 00 00 10 00 00 fe 3f     ...............?
    143c:	00 00 fc 3f 00 00 60 00 00 00 e0 00 00 00 60 01     ...?..`.......`.
    144c:	00 00 40 02 00 00 80 04 06 00 00 1b 12 00 00 26     ..@............&
    145c:	24 00 00 c8 7f 00 00 18 7f 00 00 e0 fe 00 00 e0     $...............
    146c:	ff 03 00 40 86 04 00 80 04 0f 00 00 01 08 00 00     ...@............
    147c:	02 00 00 00 0c 00 00 00 f0 ff 1f 00 e0 ff 3f 00     ..............?.
    148c:	c0 fc 01 00 c0 fd 07 00 80 18 09 00 00 19 1e 00     ................
    149c:	00 22 10 00 00 c4 00 00 00 18 0e 00 00 e0 ff 01     ."..............
    14ac:	00 c0 ff 03 00 00 00 03 00 00 00 09 00 00 00 12     ................
    14bc:	00 00 dc 3f 00 00 fc 3f 00 00 c8 00 00 00 90 00     ...?...?........
    14cc:	00 00 20 00 00 00 40 00 00 00 80 01 00 00 00 fe     .. ...@.........
    14dc:	ff 03 00 fc ff 07 00 18 00 00 00 18 00 00 00 10     ................
    14ec:	00 00 00 20 80 01 00 40 80 04 00 80 00 09 00 00     ... ...@........
    14fc:	ff 1f 00 00 fc 1f 00 00 f8 7f 00 00 f0 ff 00 00     ................
    150c:	30 7c 00 00 20 1e 00 00 40 3e 00 00 80 48 00 00     0|.. ...@>...H..
    151c:	00 71 00 00 00 06 00 00 00 fc 7f 00 00 fe ff 00     .q..............
    152c:	00 0c 00 00 00 c0 01 00 00 c0 02 00 00 80 04 00     ................
    153c:	00 00 ff 0f 00 00 fc 3f 00 00 00 40 00 00 00 87     .......?...@....
    154c:	00 00 00 1a 01 00 00 3c 02 00 00 40 04 00 80 ff     .......<...@....
    155c:	0f 00 00 ff 0f 00 00 00 03 00 00 80 03 00 00 30     ...............0
    156c:	7f 00 00 70 ff 01 00 20 46 02 00 40 86 07 00 80     ...p... F..@....
    157c:	08 04 00 00 31 00 00 00 86 03 00 00 fc 7f 00 00     ....1...........
    158c:	fe ff 00 00 0c 00 00 00 c0 01 00 00 c0 02 00 00     ................
    159c:	80 04 00 00 00 ff 1f 00 00 fc 3f 00 00 00 07 00     ..........?.....
    15ac:	00 00 03 00 00 60 03 00 00 20 03 00 00 40 06 00     .....`... ...@..
    15bc:	00 80 ff 0f 00 00 e6 1f 00 00 1c 00 00 00 2c 00     ..............,.
    15cc:	00 00 48 00 00 00 f0 ff 01 00 c0 ff 03 00 00 80     ..H.............
    15dc:	03 00 00 c0 01 00 80 e3 00 00 00 05 07 00 00 0a     ................
    15ec:	38 00 00 fc ff 00 00 f8 ff 01 00 3c 00 00 00 80     8..........<....
    15fc:	f9 03 00 80 fb 0f 00 00 91 10 00 00 62 21 00 00     ............b!..
    160c:	04 41 00 00 08 80 00 00 30 00 01 00 c0 ff 03 00     .A......0.......
    161c:	80 ff 03 00 00 f3 07 00 00 b5 1f 00 00 2a 22 00     .............*".
    162c:	00 94 47 00 00 28 80 00 00 50 00 01 00 e0 00 02     ..G..(...P......
    163c:	00 c0 ff 07 00 c0 ff 07 00 80 00 00 00 00 0c 00     ................
    164c:	00 00 3c 00 00 00 c8 00 00 00 f0 01 00 00 c0 02     ..<.............
    165c:	00 00 00 02 04 00 00 06 0c 00 00 ff 1f 00 00 fc     ................
    166c:	1f 00 00 30 18 00 00 90 48 00 00 20 91 00 00 80     ...0....H.. ....
    167c:	c3 01 00 00 04 02 00 00 0c 04 00 00 1e 0f 00 00     ................
    168c:	0c 0e 00 60 00 00 00 20 01 00 00 40 02 00 00 00     ...`... ...@....
    169c:	07 00 00 00 08 00 00 00 18 00 00 00 18 00 00 00     ................
    16ac:	18 00 00 00 10 00 00 00 00 30 00 00 00 30 00 00     .........0...0..
    16bc:	00 20 00 00 00 40 00 00 00 80 00 00 00 00 ff 1f     . ...@..........
    16cc:	00 00 fc 3f 00 00 18 00 00 00 18 00 00 00 10 00     ...?............
    16dc:	00 00 20 00 00 00 40 00 00 00 00 ff 0f 00 00 fe     .. ...@.........
    16ec:	1f 00 30 00 00 00 50 00 00 00 a0 00 00 00 20 01     ..0...P....... .
    16fc:	00 00 40 02 00 00 80 04 00 00 00 0a 00 00 00 14     ..@.............
    170c:	00 00 00 30 00 00 00 60 00 00 00 c0 00 00 00 40     ...0...`.......@
    171c:	01 00 00 40 02 00 00 80 04 00 00 00 09 00 00 00     ...@............
    172c:	12 00 00 00 28 00 00 00 60 00 00 00 f0 00 00 00     ....(...`.......
    173c:	e0 01 00 00 00 03 00 00 00 05 00 00 00 09 00 00     ................
    174c:	00 12 00 00 00 24 00 00 00 50 00 00 00 e0 00 00     .....$...P......
    175c:	00 20 01 00 00 40 02 00 00 00 03 00 00 00 0c 00     . ...@..........
    176c:	00 00 14 00 00 00 24 00 00 00 48 00 00 00 90 00     ......$...H.....
    177c:	00 00 40 01 00 00 00 03 00 00 80 07 00 00 00 08     ..@.............
    178c:	00 00 00 1e 00 00 00 00 00 80 03 00 00 00 05 00     ................
    179c:	00 00 3e 00 00 00 7c 00 00 00 38 00 00 00 50 00     ..>...|...8...P.
    17ac:	00 00 e0 03 00 00 00 04 00 00 80 0f 00 00 00 07     ................
    17bc:	00 00 00 0a 00 00 00 1c 00 e0 ff 03 00 c0 ff 07     ................
    17cc:	00 80 20 08 00 c0 ff 7f 00 80 ff ff 00 00 04 41     .. ............A
    17dc:	00 00 18 c5 00 00 e0 fb 00 00 e0 ff 01 00 c0 ff     ................
    17ec:	07 00 00 00 09 00 00 00 12 00 00 00 18 00 00 fc     ................
    17fc:	3f 00 00 f8 ff 00 00 00 20 01 00 00 c0 03 00 00     ?....... .......
    180c:	00 00 00 80 ff 07 00 00 ff 1f 00 00 00 24 00 00     .............$..
    181c:	00 48 00 00 00 60 00 30 00 00 00 70 00 00 00 a0     .H...`.0...p....
    182c:	00 00 00 60 ff ff 07 c0 fc ff 1f 80 01 00 24 00     ...`..........$.
    183c:	06 00 48 00 08 00 60 00 f0 00 00 00 50 02 00 00     ..H...`.....P...
    184c:	20 03 00 00 40 f0 ff 07 80 fb ff 1f 00 1e 00 24      ...@..........$
    185c:	00 00 00 48 00 00 00 60 00 78 00 00 00 c0 01 00     ...H...`.x......
    186c:	00 80 03 00 00 c0 03 00 00 80 f8 ff 0f 00 ff ff     ................
    187c:	3f 00 1e 00 48 00 00 00 90 00 00 00 c0 00 00 c0     ?...H...........
    188c:	00 00 00 40 00 00 00 80 00 00 00 00 01 00 00 00     ...@............
    189c:	02 00 00 00 f8 ff 0f 00 f0 ff 1f 00 e0 01 00 00     ................
    18ac:	60 02 00 00 c0 07 00 00 80 01 00 00 00 0e 80 00     `...............
    18bc:	00 06 80 01 00 fc ff 01 00 f0 ff 01 e0 00 00 00     ................
    18cc:	20 01 00 00 20 01 00 00 40 04 00 00 80 0c 00 00      ... ...@.......
    18dc:	00 15 00 00 00 1b 00 00 00 02 00 00 00 0f 00 00     ................
    18ec:	00 1e 00 00 00 2c 00 00 00 68 00 00 00 b0 00 00     .....,...h......
    18fc:	00 00 01 00 00 00 02 00 00 00 06 00 00 00 07 00     ................
    190c:	00 00 06 00 00 00 30 00 00 00 b0 00 00 00 a0 01     ......0.........
    191c:	00 00 80 01 00 00 80 00 00 00 00 0b 00 00 00 0c     ................
    192c:	00 00 00 10 00 00 00 18 00 00 00 10 00 00 00 20     ............... 
    193c:	00 00 00 f0 01 00 00 e0 03 00 00 00 01 00 00 00     ................
    194c:	02 00 00 00 38 00 00 00 50 00 00 00 e0 00 00 00     ....8...P.......
    195c:	40 00 00 00 00 01 00 00 80 01 00 00 00 01 00 00     @...............
    196c:	00 00 00 3c 00 00 00 fe 01 00 00 0c 03 00 00 0c     ...<............
    197c:	0c 00 00 08 10 00 00 10 20 00 00 20 40 00 00 40     ........ .. @..@
    198c:	80 00 00 80 81 01 00 00 86 01 00 00 f8 01 00 00     ................
    199c:	e0 03 00 00 e0 0c 00 00 40 20 00 00 40 5c 00 00     ........@ ..@\..
    19ac:	80 a8 00 00 00 d1 01 00 00 e2 01 00 00 84 09 00     ................
    19bc:	00 10 18 00 00 e0 1f 00 00 00 1f 00 00 02 00 00     ................
    19cc:	00 0c 00 00 00 f8 ff 00 00 e0 ff 03 00 00 00 04     ................
    19dc:	00 00 f0 09 00 00 f0 17 00 00 20 29 00 00 40 5e     .......... )..@^
    19ec:	00 00 80 91 00 00 00 01 01 00 00 fe 03 00 00 fc     ................
    19fc:	03 00 00 f0 07 00 00 30 1c 00 00 20 24 00 00 40     .......0... $..@
    1a0c:	48 00 00 80 77 00 00 00 0e 00 00 00 02 00 00 00     H...w...........
    1a1c:	04 00 00 00 f8 0f 00 00 e0 1f 00 00 80 0f 00 00     ................
    1a2c:	80 3f 00 00 80 c1 00 00 00 01 01 00 00 72 02 00     .?...........r..
    1a3c:	00 b4 05 00 00 68 07 00 00 90 0b 00 00 20 10 00     .....h....... ..
    1a4c:	00 60 60 00 00 74 80 00 00 70 00 00 00 00 f8 00     .``..t...p......
    1a5c:	00 00 f8 03 00 00 18 0c 00 00 10 10 00 00 2c 27     ..............,'
    1a6c:	00 00 68 59 00 00 d8 72 00 00 e0 b9 00 00 00 02     ..hY...r........
    1a7c:	01 00 00 06 06 00 40 06 08 00 00 07 00 00 00 07     ......@.........
    1a8c:	00 00 00 fc 01 00 00 c0 7b 00 00 00 92 00 00 00     ........{.......
    1a9c:	a2 03 00 00 c4 05 00 00 08 08 00 00 10 10 00 00     ................
    1aac:	20 30 00 00 80 20 00 00 00 7f 00 00 00 7c 00 00      0... .......|..
    1abc:	00 fc 01 00 00 0c 07 00 00 08 09 00 00 10 12 00     ................
    1acc:	00 e0 1d 00 00 80 01 00 00 80 00 00 00 00 81 01     ................
    1adc:	00 00 fe 03 00 00 f8 03 00 00 ff 07 00 00 ff 03     ................
    1aec:	00 00 03 00 00 00 00 1f 00 00 00 7f 00 00 00 83     ................
    1afc:	01 00 00 c2 03 00 00 84 00 00 00 08 03 00 00 90     ................
    1b0c:	0f 00 00 20 35 00 00 40 52 00 00 c0 fc 00 00 c8     ... 5..@R.......
    1b1c:	f0 00 00 e0 00 00 00 00 f0 01 00 00 f8 07 00 00     ................
    1b2c:	70 18 00 00 60 2c 00 00 40 54 00 00 80 c9 00 00     p...`,..@T......
    1b3c:	00 f3 00 00 00 9c 00 00 00 78 00 00 00 b8 03 00     .........x......
    1b4c:	00 30 0c 00 00 c0 30 00 00 80 41 00 00 f8 01 00     .0....0...A.....

00001b5c <__ctors_end>:
    1b5c:	11 24       	eor	r1, r1
    1b5e:	1f be       	out	0x3f, r1	; 63
    1b60:	cf e5       	ldi	r28, 0x5F	; 95
    1b62:	d8 e0       	ldi	r29, 0x08	; 8
    1b64:	de bf       	out	0x3e, r29	; 62
    1b66:	cd bf       	out	0x3d, r28	; 61

00001b68 <__do_copy_data>:
    1b68:	11 e0       	ldi	r17, 0x01	; 1
    1b6a:	a0 e6       	ldi	r26, 0x60	; 96
    1b6c:	b0 e0       	ldi	r27, 0x00	; 0
    1b6e:	ee ec       	ldi	r30, 0xCE	; 206
    1b70:	f5 e4       	ldi	r31, 0x45	; 69
    1b72:	02 c0       	rjmp	.+4      	; 0x1b78 <__do_copy_data+0x10>
    1b74:	05 90       	lpm	r0, Z+
    1b76:	0d 92       	st	X+, r0
    1b78:	a8 3e       	cpi	r26, 0xE8	; 232
    1b7a:	b1 07       	cpc	r27, r17
    1b7c:	d9 f7       	brne	.-10     	; 0x1b74 <__do_copy_data+0xc>

00001b7e <__do_clear_bss>:
    1b7e:	22 e0       	ldi	r18, 0x02	; 2
    1b80:	a8 ee       	ldi	r26, 0xE8	; 232
    1b82:	b1 e0       	ldi	r27, 0x01	; 1
    1b84:	01 c0       	rjmp	.+2      	; 0x1b88 <.do_clear_bss_start>

00001b86 <.do_clear_bss_loop>:
    1b86:	1d 92       	st	X+, r1

00001b88 <.do_clear_bss_start>:
    1b88:	ad 3e       	cpi	r26, 0xED	; 237
    1b8a:	b2 07       	cpc	r27, r18
    1b8c:	e1 f7       	brne	.-8      	; 0x1b86 <.do_clear_bss_loop>
    1b8e:	0e 94 9d 1d 	call	0x3b3a	; 0x3b3a <main>
    1b92:	0c 94 e5 22 	jmp	0x45ca	; 0x45ca <_exit>

00001b96 <__bad_interrupt>:
    1b96:	0c 94 00 00 	jmp	0	; 0x0 <__vectors>

00001b9a <LcdFont>:
/* _____PRIVATE FUNCTIONS____________________________________________________ */

/* _____PUBLIC FUNCTIONS_____________________________________________________ */
void LcdFont(uint8_t *pointer)
{
	FontPointer = pointer;
    1b9a:	90 93 f6 01 	sts	0x01F6, r25
    1b9e:	80 93 f5 01 	sts	0x01F5, r24
	FontWidth   = pgm_read_byte_near(&FontPointer[2]);
    1ba2:	fc 01       	movw	r30, r24
    1ba4:	32 96       	adiw	r30, 0x02	; 2
    1ba6:	e4 91       	lpm	r30, Z
    1ba8:	e0 93 f3 01 	sts	0x01F3, r30
	FontHeight  = pgm_read_byte_near(&FontPointer[3]);
    1bac:	fc 01       	movw	r30, r24
    1bae:	33 96       	adiw	r30, 0x03	; 3
    1bb0:	84 91       	lpm	r24, Z
    1bb2:	80 93 f4 01 	sts	0x01F4, r24
    1bb6:	08 95       	ret

00001bb8 <DrawChar>:
}

// Nacrtaj char
uint8_t DrawChar(unsigned char c)
{
    1bb8:	2f 92       	push	r2
    1bba:	3f 92       	push	r3
    1bbc:	4f 92       	push	r4
    1bbe:	5f 92       	push	r5
    1bc0:	6f 92       	push	r6
    1bc2:	7f 92       	push	r7
    1bc4:	8f 92       	push	r8
    1bc6:	9f 92       	push	r9
    1bc8:	af 92       	push	r10
    1bca:	bf 92       	push	r11
    1bcc:	cf 92       	push	r12
    1bce:	df 92       	push	r13
    1bd0:	ef 92       	push	r14
    1bd2:	ff 92       	push	r15
    1bd4:	0f 93       	push	r16
    1bd6:	1f 93       	push	r17
    1bd8:	cf 93       	push	r28
    1bda:	df 93       	push	r29
    1bdc:	cd b7       	in	r28, 0x3d	; 61
    1bde:	de b7       	in	r29, 0x3e	; 62
    1be0:	2a 97       	sbiw	r28, 0x0a	; 10
    1be2:	0f b6       	in	r0, 0x3f	; 63
    1be4:	f8 94       	cli
    1be6:	de bf       	out	0x3e, r29	; 62
    1be8:	0f be       	out	0x3f, r0	; 63
    1bea:	cd bf       	out	0x3d, r28	; 61
	uint16_t    fontSize        =   pgm_read_word_near(&FontPointer[0]);
    1bec:	20 91 f5 01 	lds	r18, 0x01F5
    1bf0:	30 91 f6 01 	lds	r19, 0x01F6
    1bf4:	f9 01       	movw	r30, r18
    1bf6:	a5 91       	lpm	r26, Z+
    1bf8:	b4 91       	lpm	r27, Z
	uint8_t     firstchar       =   pgm_read_byte_near(&FontPointer[5]);
    1bfa:	f9 01       	movw	r30, r18
    1bfc:	35 96       	adiw	r30, 0x05	; 5
    1bfe:	04 91       	lpm	r16, Z
	uint8_t     lastchar        =   pgm_read_byte_near(&FontPointer[6]);
    1c00:	f9 01       	movw	r30, r18
    1c02:	36 96       	adiw	r30, 0x06	; 6
    1c04:	14 91       	lpm	r17, Z
	uint8_t     charwidth       =   pgm_read_byte_near(&FontPointer[7+c-firstchar]);
    1c06:	68 2f       	mov	r22, r24
    1c08:	70 e0       	ldi	r23, 0x00	; 0
    1c0a:	40 2f       	mov	r20, r16
    1c0c:	50 e0       	ldi	r21, 0x00	; 0
    1c0e:	fb 01       	movw	r30, r22
    1c10:	37 96       	adiw	r30, 0x07	; 7
    1c12:	e4 1b       	sub	r30, r20
    1c14:	f5 0b       	sbc	r31, r21
    1c16:	e2 0f       	add	r30, r18
    1c18:	f3 1f       	adc	r31, r19
    1c1a:	94 91       	lpm	r25, Z
	uint8_t     maske           =   0;
	uint16_t    bcounter        =   0;
	uint16_t    bitsbischar     =   0;
	uint16_t    bytesbischar    =   0;
	uint16_t    xPos,yPos;
	uint16_t    color = GetColor(); // backup color
    1c1c:	e0 91 6d 00 	lds	r30, 0x006D
    1c20:	f0 91 6e 00 	lds	r31, 0x006E
    1c24:	f8 87       	std	Y+8, r31	; 0x08
    1c26:	ef 83       	std	Y+7, r30	; 0x07
	
	if (c == '\n')
    1c28:	8a 30       	cpi	r24, 0x0A	; 10
    1c2a:	a1 f4       	brne	.+40     	; 0x1c54 <DrawChar+0x9c>
	{
		cursorY = cursorY + (unsigned int)FontHeight * FontYScale;
    1c2c:	e0 90 67 00 	lds	r14, 0x0067
    1c30:	f0 90 f4 01 	lds	r15, 0x01F4
    1c34:	e0 91 ea 01 	lds	r30, 0x01EA
    1c38:	f0 91 eb 01 	lds	r31, 0x01EB
    1c3c:	ef 9c       	mul	r14, r15
    1c3e:	e0 0d       	add	r30, r0
    1c40:	f1 1d       	adc	r31, r1
    1c42:	11 24       	eor	r1, r1
    1c44:	f0 93 eb 01 	sts	0x01EB, r31
    1c48:	e0 93 ea 01 	sts	0x01EA, r30
		cursorX = 0;
    1c4c:	10 92 ed 01 	sts	0x01ED, r1
    1c50:	10 92 ec 01 	sts	0x01EC, r1
	}
	
	// character out of range.
	if( (c < firstchar) || (c > lastchar) || (fontSize == 0))
    1c54:	80 17       	cp	r24, r16
    1c56:	08 f4       	brcc	.+2      	; 0x1c5a <DrawChar+0xa2>
    1c58:	65 c1       	rjmp	.+714    	; 0x1f24 <DrawChar+0x36c>
    1c5a:	18 17       	cp	r17, r24
    1c5c:	08 f4       	brcc	.+2      	; 0x1c60 <DrawChar+0xa8>
    1c5e:	64 c1       	rjmp	.+712    	; 0x1f28 <DrawChar+0x370>
    1c60:	ab 2b       	or	r26, r27
    1c62:	09 f4       	brne	.+2      	; 0x1c66 <DrawChar+0xae>
    1c64:	63 c1       	rjmp	.+710    	; 0x1f2c <DrawChar+0x374>
	return 0;
	
	// character is not in list.
	if (charwidth == 0)
    1c66:	99 23       	and	r25, r25
    1c68:	09 f4       	brne	.+2      	; 0x1c6c <DrawChar+0xb4>
    1c6a:	62 c1       	rjmp	.+708    	; 0x1f30 <DrawChar+0x378>
	return 0;
	
	// sara thai font. line remain at last position
	if(FontFixed)
    1c6c:	e0 91 ef 01 	lds	r30, 0x01EF
    1c70:	ee 23       	and	r30, r30
    1c72:	21 f0       	breq	.+8      	; 0x1c7c <DrawChar+0xc4>
	charwidth = FontWidth;
    1c74:	f0 91 f3 01 	lds	r31, 0x01F3
    1c78:	fc 83       	std	Y+4, r31	; 0x04
    1c7a:	1a c0       	rjmp	.+52     	; 0x1cb0 <DrawChar+0xf8>
	else
	{
		if (((c >= 0xd4) && (c <= 0xda)) ||
    1c7c:	e8 2f       	mov	r30, r24
    1c7e:	e4 5d       	subi	r30, 0xD4	; 212
    1c80:	e7 30       	cpi	r30, 0x07	; 7
    1c82:	28 f0       	brcs	.+10     	; 0x1c8e <DrawChar+0xd6>
		((c >= 0xe7) && (c <= 0xec)) ||
    1c84:	e3 51       	subi	r30, 0x13	; 19
	// sara thai font. line remain at last position
	if(FontFixed)
	charwidth = FontWidth;
	else
	{
		if (((c >= 0xd4) && (c <= 0xda)) ||
    1c86:	e6 30       	cpi	r30, 0x06	; 6
    1c88:	10 f0       	brcs	.+4      	; 0x1c8e <DrawChar+0xd6>
		((c >= 0xe7) && (c <= 0xec)) ||
    1c8a:	81 3d       	cpi	r24, 0xD1	; 209
    1c8c:	81 f4       	brne	.+32     	; 0x1cae <DrawChar+0xf6>
		(c == 0xd1))
		{
			cursorX = cursorX - charwidth * FontXScale;
    1c8e:	a0 91 68 00 	lds	r26, 0x0068
    1c92:	e0 91 ec 01 	lds	r30, 0x01EC
    1c96:	f0 91 ed 01 	lds	r31, 0x01ED
    1c9a:	9a 9f       	mul	r25, r26
    1c9c:	e0 19       	sub	r30, r0
    1c9e:	f1 09       	sbc	r31, r1
    1ca0:	11 24       	eor	r1, r1
    1ca2:	f0 93 ed 01 	sts	0x01ED, r31
    1ca6:	e0 93 ec 01 	sts	0x01EC, r30
uint8_t DrawChar(unsigned char c)
{
	uint16_t    fontSize        =   pgm_read_word_near(&FontPointer[0]);
	uint8_t     firstchar       =   pgm_read_byte_near(&FontPointer[5]);
	uint8_t     lastchar        =   pgm_read_byte_near(&FontPointer[6]);
	uint8_t     charwidth       =   pgm_read_byte_near(&FontPointer[7+c-firstchar]);
    1caa:	9c 83       	std	Y+4, r25	; 0x04
    1cac:	01 c0       	rjmp	.+2      	; 0x1cb0 <DrawChar+0xf8>
    1cae:	9c 83       	std	Y+4, r25	; 0x04
			cursorX = cursorX - charwidth * FontXScale;
		}
	}
	
	// fixed width for digit
	if ( (c >= '0') && (c <= '9'))
    1cb0:	80 53       	subi	r24, 0x30	; 48
    1cb2:	8a 30       	cpi	r24, 0x0A	; 10
    1cb4:	30 f4       	brcc	.+12     	; 0x1cc2 <DrawChar+0x10a>
	charwidth = pgm_read_byte_near(&FontPointer[7+'0'-firstchar]);
    1cb6:	f9 01       	movw	r30, r18
    1cb8:	e4 1b       	sub	r30, r20
    1cba:	f5 0b       	sbc	r31, r21
    1cbc:	f7 96       	adiw	r30, 0x37	; 55
    1cbe:	e4 91       	lpm	r30, Z
    1cc0:	ec 83       	std	Y+4, r30	; 0x04
	
	// line adjust
	if (cursorX + charwidth * FontXScale > GetMaxX())
    1cc2:	80 91 68 00 	lds	r24, 0x0068
    1cc6:	fc 81       	ldd	r31, Y+4	; 0x04
    1cc8:	ef 2f       	mov	r30, r31
    1cca:	f0 e0       	ldi	r31, 0x00	; 0
    1ccc:	fa 87       	std	Y+10, r31	; 0x0a
    1cce:	e9 87       	std	Y+9, r30	; 0x09
    1cd0:	e0 91 ec 01 	lds	r30, 0x01EC
    1cd4:	f0 91 ed 01 	lds	r31, 0x01ED
    1cd8:	9c 81       	ldd	r25, Y+4	; 0x04
    1cda:	89 9f       	mul	r24, r25
    1cdc:	e0 0d       	add	r30, r0
    1cde:	f1 1d       	adc	r31, r1
    1ce0:	11 24       	eor	r1, r1
    1ce2:	e0 3f       	cpi	r30, 0xF0	; 240
    1ce4:	f1 05       	cpc	r31, r1
    1ce6:	a0 f0       	brcs	.+40     	; 0x1d10 <DrawChar+0x158>
	{
		cursorY = cursorY + (unsigned int)FontHeight * FontYScale;
    1ce8:	90 91 67 00 	lds	r25, 0x0067
    1cec:	80 91 f4 01 	lds	r24, 0x01F4
    1cf0:	e0 91 ea 01 	lds	r30, 0x01EA
    1cf4:	f0 91 eb 01 	lds	r31, 0x01EB
    1cf8:	98 9f       	mul	r25, r24
    1cfa:	e0 0d       	add	r30, r0
    1cfc:	f1 1d       	adc	r31, r1
    1cfe:	11 24       	eor	r1, r1
    1d00:	f0 93 eb 01 	sts	0x01EB, r31
    1d04:	e0 93 ea 01 	sts	0x01EA, r30
		cursorX = 0;
    1d08:	10 92 ed 01 	sts	0x01ED, r1
    1d0c:	10 92 ec 01 	sts	0x01EC, r1
	}
	
	for(uint8_t Ccounter = 0; Ccounter < c-firstchar; Ccounter++)
    1d10:	64 1b       	sub	r22, r20
    1d12:	75 0b       	sbc	r23, r21
    1d14:	16 16       	cp	r1, r22
    1d16:	17 06       	cpc	r1, r23
    1d18:	94 f4       	brge	.+36     	; 0x1d3e <DrawChar+0x186>
    1d1a:	a0 e0       	ldi	r26, 0x00	; 0
	uint8_t     charwidth       =   pgm_read_byte_near(&FontPointer[7+c-firstchar]);
	uint8_t     byte            =   0;
	uint8_t     bitoffset       =   0;
	uint8_t     maske           =   0;
	uint16_t    bcounter        =   0;
	uint16_t    bitsbischar     =   0;
    1d1c:	80 e0       	ldi	r24, 0x00	; 0
    1d1e:	90 e0       	ldi	r25, 0x00	; 0
		cursorY = cursorY + (unsigned int)FontHeight * FontYScale;
		cursorX = 0;
	}
	
	for(uint8_t Ccounter = 0; Ccounter < c-firstchar; Ccounter++)
	bitsbischar += (pgm_read_byte_near(&FontPointer[Ccounter+7]));
    1d20:	ea 2f       	mov	r30, r26
    1d22:	f0 e0       	ldi	r31, 0x00	; 0
    1d24:	37 96       	adiw	r30, 0x07	; 7
    1d26:	e2 0f       	add	r30, r18
    1d28:	f3 1f       	adc	r31, r19
    1d2a:	e4 91       	lpm	r30, Z
    1d2c:	8e 0f       	add	r24, r30
    1d2e:	91 1d       	adc	r25, r1
	{
		cursorY = cursorY + (unsigned int)FontHeight * FontYScale;
		cursorX = 0;
	}
	
	for(uint8_t Ccounter = 0; Ccounter < c-firstchar; Ccounter++)
    1d30:	af 5f       	subi	r26, 0xFF	; 255
    1d32:	ea 2f       	mov	r30, r26
    1d34:	f0 e0       	ldi	r31, 0x00	; 0
    1d36:	e6 17       	cp	r30, r22
    1d38:	f7 07       	cpc	r31, r23
    1d3a:	94 f3       	brlt	.-28     	; 0x1d20 <DrawChar+0x168>
    1d3c:	02 c0       	rjmp	.+4      	; 0x1d42 <DrawChar+0x18a>
	uint8_t     charwidth       =   pgm_read_byte_near(&FontPointer[7+c-firstchar]);
	uint8_t     byte            =   0;
	uint8_t     bitoffset       =   0;
	uint8_t     maske           =   0;
	uint16_t    bcounter        =   0;
	uint16_t    bitsbischar     =   0;
    1d3e:	80 e0       	ldi	r24, 0x00	; 0
    1d40:	90 e0       	ldi	r25, 0x00	; 0
	
	for(uint8_t Ccounter = 0; Ccounter < c-firstchar; Ccounter++)
	bitsbischar += (pgm_read_byte_near(&FontPointer[Ccounter+7]));
	
	
	bitsbischar *= FontHeight;
    1d42:	60 91 f4 01 	lds	r22, 0x01F4
    1d46:	68 9f       	mul	r22, r24
    1d48:	90 01       	movw	r18, r0
    1d4a:	69 9f       	mul	r22, r25
    1d4c:	30 0d       	add	r19, r0
    1d4e:	11 24       	eor	r1, r1
	bitsbischar += ((lastchar-firstchar)+7)*8;
    1d50:	81 2f       	mov	r24, r17
    1d52:	90 e0       	ldi	r25, 0x00	; 0
    1d54:	84 1b       	sub	r24, r20
    1d56:	95 0b       	sbc	r25, r21
    1d58:	07 96       	adiw	r24, 0x07	; 7
    1d5a:	88 0f       	add	r24, r24
    1d5c:	99 1f       	adc	r25, r25
    1d5e:	88 0f       	add	r24, r24
    1d60:	99 1f       	adc	r25, r25
    1d62:	88 0f       	add	r24, r24
    1d64:	99 1f       	adc	r25, r25
    1d66:	82 0f       	add	r24, r18
    1d68:	93 1f       	adc	r25, r19
	bytesbischar = bitsbischar/8;
    1d6a:	9c 01       	movw	r18, r24
    1d6c:	36 95       	lsr	r19
    1d6e:	27 95       	ror	r18
    1d70:	36 95       	lsr	r19
    1d72:	27 95       	ror	r18
    1d74:	36 95       	lsr	r19
    1d76:	27 95       	ror	r18
	bitoffset = bitsbischar % 8;
	maske = bitoffset % 8;
    1d78:	0f 2e       	mov	r0, r31
    1d7a:	f7 e0       	ldi	r31, 0x07	; 7
    1d7c:	4f 2e       	mov	r4, r31
    1d7e:	f0 2d       	mov	r31, r0
    1d80:	48 22       	and	r4, r24
	
	for(uint8_t xc = 0; xc < charwidth; xc++) // Eigentlcihe Ausgaberoutine
    1d82:	ec 81       	ldd	r30, Y+4	; 0x04
    1d84:	e1 11       	cpse	r30, r1
    1d86:	9c c0       	rjmp	.+312    	; 0x1ec0 <DrawChar+0x308>
    1d88:	aa c0       	rjmp	.+340    	; 0x1ede <DrawChar+0x326>
	{
		for(uint8_t yc = 0; yc < FontHeight; yc++)
    1d8a:	31 2c       	mov	r3, r1
		{
			if(maske > 7)
    1d8c:	f7 e0       	ldi	r31, 0x07	; 7
    1d8e:	f4 15       	cp	r31, r4
    1d90:	20 f4       	brcc	.+8      	; 0x1d9a <DrawChar+0x1e2>
			{
				maske = 0;
				bcounter+=1;
    1d92:	2f ef       	ldi	r18, 0xFF	; 255
    1d94:	82 1a       	sub	r8, r18
    1d96:	92 0a       	sbc	r9, r18
	{
		for(uint8_t yc = 0; yc < FontHeight; yc++)
		{
			if(maske > 7)
			{
				maske = 0;
    1d98:	42 2c       	mov	r4, r2
				bcounter+=1;
			};
			byte = pgm_read_byte_near(&FontPointer[bytesbischar + bcounter]+1);
    1d9a:	8d 81       	ldd	r24, Y+5	; 0x05
    1d9c:	9e 81       	ldd	r25, Y+6	; 0x06
    1d9e:	88 0d       	add	r24, r8
    1da0:	99 1d       	adc	r25, r9
    1da2:	e0 91 f5 01 	lds	r30, 0x01F5
    1da6:	f0 91 f6 01 	lds	r31, 0x01F6
    1daa:	e8 0f       	add	r30, r24
    1dac:	f9 1f       	adc	r31, r25
    1dae:	e4 91       	lpm	r30, Z
    1db0:	e9 83       	std	Y+1, r30	; 0x01
			
			xPos = (uint16_t)xc*FontXScale + cursorX;
    1db2:	20 91 68 00 	lds	r18, 0x0068
    1db6:	8a 81       	ldd	r24, Y+2	; 0x02
    1db8:	9b 81       	ldd	r25, Y+3	; 0x03
    1dba:	28 9f       	mul	r18, r24
    1dbc:	50 01       	movw	r10, r0
    1dbe:	29 9f       	mul	r18, r25
    1dc0:	b0 0c       	add	r11, r0
    1dc2:	11 24       	eor	r1, r1
    1dc4:	80 91 ec 01 	lds	r24, 0x01EC
    1dc8:	90 91 ed 01 	lds	r25, 0x01ED
    1dcc:	a8 0e       	add	r10, r24
    1dce:	b9 1e       	adc	r11, r25
			#ifdef Horizontal
			yPos = (((uint16_t)yc)*FontYScale + cursorY);
    1dd0:	80 91 67 00 	lds	r24, 0x0067
    1dd4:	c0 90 ea 01 	lds	r12, 0x01EA
    1dd8:	d0 90 eb 01 	lds	r13, 0x01EB
    1ddc:	38 9e       	mul	r3, r24
    1dde:	c0 0c       	add	r12, r0
    1de0:	d1 1c       	adc	r13, r1
    1de2:	11 24       	eor	r1, r1
			#else
			//          yPos = GetMaxY() - (((uint16_t)yc)*FontYScale + cursorY);
			//          yPos = (((uint16_t)FontHeight-yc)*FontYScale + cursorY);
			yPos = ((yc)*FontYScale + cursorY);
			#endif
			for(uint8_t sx = 0; sx < FontXScale; sx++)
    1de4:	22 23       	and	r18, r18
    1de6:	09 f4       	brne	.+2      	; 0x1dea <DrawChar+0x232>
    1de8:	5b c0       	rjmp	.+182    	; 0x1ea0 <DrawChar+0x2e8>
    1dea:	01 e0       	ldi	r16, 0x01	; 1
    1dec:	10 e0       	ldi	r17, 0x00	; 0
    1dee:	04 2c       	mov	r0, r4
    1df0:	02 c0       	rjmp	.+4      	; 0x1df6 <DrawChar+0x23e>
    1df2:	00 0f       	add	r16, r16
    1df4:	11 1f       	adc	r17, r17
    1df6:	0a 94       	dec	r0
    1df8:	e2 f7       	brpl	.-8      	; 0x1df2 <DrawChar+0x23a>
    1dfa:	62 2c       	mov	r6, r2
    1dfc:	4c c0       	rjmp	.+152    	; 0x1e96 <DrawChar+0x2de>
			{
				for(uint8_t sy = 0; sy < FontYScale; sy++)
    1dfe:	75 2c       	mov	r7, r5
						{
							SetColor(GetBkColor());
							if(rot)
							LCD_PutPixel(yPos +sy,xPos+sx);
							else
							LCD_PutPixel(xPos+sx,yPos+sy);
    1e00:	75 01       	movw	r14, r10
    1e02:	e6 0c       	add	r14, r6
    1e04:	f1 1c       	adc	r15, r1
			#endif
			for(uint8_t sx = 0; sx < FontXScale; sx++)
			{
				for(uint8_t sy = 0; sy < FontYScale; sy++)
				{
					if(bit_is_set(byte,maske))
    1e06:	89 81       	ldd	r24, Y+1	; 0x01
    1e08:	90 e0       	ldi	r25, 0x00	; 0
    1e0a:	80 23       	and	r24, r16
    1e0c:	91 23       	and	r25, r17
    1e0e:	89 2b       	or	r24, r25
    1e10:	d1 f0       	breq	.+52     	; 0x1e46 <DrawChar+0x28e>
					{
						SetColor(GetFgColor());
    1e12:	80 91 6b 00 	lds	r24, 0x006B
    1e16:	90 91 6c 00 	lds	r25, 0x006C
    1e1a:	90 93 6e 00 	sts	0x006E, r25
    1e1e:	80 93 6d 00 	sts	0x006D, r24
						if(rot)
    1e22:	80 91 f0 01 	lds	r24, 0x01F0
    1e26:	88 23       	and	r24, r24
    1e28:	39 f0       	breq	.+14     	; 0x1e38 <DrawChar+0x280>
						LCD_PutPixel(yPos +sy,xPos+sx);
    1e2a:	b7 01       	movw	r22, r14
    1e2c:	c6 01       	movw	r24, r12
    1e2e:	87 0d       	add	r24, r7
    1e30:	91 1d       	adc	r25, r1
    1e32:	0e 94 0c 20 	call	0x4018	; 0x4018 <LCD_PutPixel>
    1e36:	24 c0       	rjmp	.+72     	; 0x1e80 <DrawChar+0x2c8>
						else
						LCD_PutPixel(xPos+sx,yPos+sy);
    1e38:	b6 01       	movw	r22, r12
    1e3a:	67 0d       	add	r22, r7
    1e3c:	71 1d       	adc	r23, r1
    1e3e:	c7 01       	movw	r24, r14
    1e40:	0e 94 0c 20 	call	0x4018	; 0x4018 <LCD_PutPixel>
    1e44:	1d c0       	rjmp	.+58     	; 0x1e80 <DrawChar+0x2c8>
					}
					else
					{
						if(NonTransparence)
    1e46:	80 91 ee 01 	lds	r24, 0x01EE
    1e4a:	88 23       	and	r24, r24
    1e4c:	c9 f0       	breq	.+50     	; 0x1e80 <DrawChar+0x2c8>
						{
							SetColor(GetBkColor());
    1e4e:	80 91 69 00 	lds	r24, 0x0069
    1e52:	90 91 6a 00 	lds	r25, 0x006A
    1e56:	90 93 6e 00 	sts	0x006E, r25
    1e5a:	80 93 6d 00 	sts	0x006D, r24
							if(rot)
    1e5e:	80 91 f0 01 	lds	r24, 0x01F0
    1e62:	88 23       	and	r24, r24
    1e64:	39 f0       	breq	.+14     	; 0x1e74 <DrawChar+0x2bc>
							LCD_PutPixel(yPos +sy,xPos+sx);
    1e66:	b7 01       	movw	r22, r14
    1e68:	c6 01       	movw	r24, r12
    1e6a:	87 0d       	add	r24, r7
    1e6c:	91 1d       	adc	r25, r1
    1e6e:	0e 94 0c 20 	call	0x4018	; 0x4018 <LCD_PutPixel>
    1e72:	06 c0       	rjmp	.+12     	; 0x1e80 <DrawChar+0x2c8>
							else
							LCD_PutPixel(xPos+sx,yPos+sy);
    1e74:	b6 01       	movw	r22, r12
    1e76:	67 0d       	add	r22, r7
    1e78:	71 1d       	adc	r23, r1
    1e7a:	c7 01       	movw	r24, r14
    1e7c:	0e 94 0c 20 	call	0x4018	; 0x4018 <LCD_PutPixel>
			//          yPos = (((uint16_t)FontHeight-yc)*FontYScale + cursorY);
			yPos = ((yc)*FontYScale + cursorY);
			#endif
			for(uint8_t sx = 0; sx < FontXScale; sx++)
			{
				for(uint8_t sy = 0; sy < FontYScale; sy++)
    1e80:	73 94       	inc	r7
    1e82:	80 91 67 00 	lds	r24, 0x0067
    1e86:	78 16       	cp	r7, r24
    1e88:	08 f4       	brcc	.+2      	; 0x1e8c <DrawChar+0x2d4>
    1e8a:	bd cf       	rjmp	.-134    	; 0x1e06 <DrawChar+0x24e>
			#else
			//          yPos = GetMaxY() - (((uint16_t)yc)*FontYScale + cursorY);
			//          yPos = (((uint16_t)FontHeight-yc)*FontYScale + cursorY);
			yPos = ((yc)*FontYScale + cursorY);
			#endif
			for(uint8_t sx = 0; sx < FontXScale; sx++)
    1e8c:	63 94       	inc	r6
    1e8e:	80 91 68 00 	lds	r24, 0x0068
    1e92:	68 16       	cp	r6, r24
    1e94:	28 f4       	brcc	.+10     	; 0x1ea0 <DrawChar+0x2e8>
			{
				for(uint8_t sy = 0; sy < FontYScale; sy++)
    1e96:	80 91 67 00 	lds	r24, 0x0067
    1e9a:	81 11       	cpse	r24, r1
    1e9c:	b0 cf       	rjmp	.-160    	; 0x1dfe <DrawChar+0x246>
    1e9e:	f6 cf       	rjmp	.-20     	; 0x1e8c <DrawChar+0x2d4>
							LCD_PutPixel(xPos+sx,yPos+sy);
						}
					}
				}
			}
			maske++;
    1ea0:	43 94       	inc	r4
	bitoffset = bitsbischar % 8;
	maske = bitoffset % 8;
	
	for(uint8_t xc = 0; xc < charwidth; xc++) // Eigentlcihe Ausgaberoutine
	{
		for(uint8_t yc = 0; yc < FontHeight; yc++)
    1ea2:	33 94       	inc	r3
    1ea4:	80 91 f4 01 	lds	r24, 0x01F4
    1ea8:	38 16       	cp	r3, r24
    1eaa:	08 f4       	brcc	.+2      	; 0x1eae <DrawChar+0x2f6>
    1eac:	6f cf       	rjmp	.-290    	; 0x1d8c <DrawChar+0x1d4>
    1eae:	ea 81       	ldd	r30, Y+2	; 0x02
    1eb0:	fb 81       	ldd	r31, Y+3	; 0x03
    1eb2:	31 96       	adiw	r30, 0x01	; 1
    1eb4:	fb 83       	std	Y+3, r31	; 0x03
    1eb6:	ea 83       	std	Y+2, r30	; 0x02
	bitsbischar += ((lastchar-firstchar)+7)*8;
	bytesbischar = bitsbischar/8;
	bitoffset = bitsbischar % 8;
	maske = bitoffset % 8;
	
	for(uint8_t xc = 0; xc < charwidth; xc++) // Eigentlcihe Ausgaberoutine
    1eb8:	fc 81       	ldd	r31, Y+4	; 0x04
    1eba:	ef 17       	cp	r30, r31
    1ebc:	58 f0       	brcs	.+22     	; 0x1ed4 <DrawChar+0x31c>
    1ebe:	0f c0       	rjmp	.+30     	; 0x1ede <DrawChar+0x326>
    1ec0:	1b 82       	std	Y+3, r1	; 0x03
    1ec2:	1a 82       	std	Y+2, r1	; 0x02
	uint8_t     lastchar        =   pgm_read_byte_near(&FontPointer[6]);
	uint8_t     charwidth       =   pgm_read_byte_near(&FontPointer[7+c-firstchar]);
	uint8_t     byte            =   0;
	uint8_t     bitoffset       =   0;
	uint8_t     maske           =   0;
	uint16_t    bcounter        =   0;
    1ec4:	81 2c       	mov	r8, r1
    1ec6:	91 2c       	mov	r9, r1
			if(maske > 7)
			{
				maske = 0;
				bcounter+=1;
			};
			byte = pgm_read_byte_near(&FontPointer[bytesbischar + bcounter]+1);
    1ec8:	c9 01       	movw	r24, r18
    1eca:	01 96       	adiw	r24, 0x01	; 1
    1ecc:	9e 83       	std	Y+6, r25	; 0x06
    1ece:	8d 83       	std	Y+5, r24	; 0x05
			//          yPos = (((uint16_t)FontHeight-yc)*FontYScale + cursorY);
			yPos = ((yc)*FontYScale + cursorY);
			#endif
			for(uint8_t sx = 0; sx < FontXScale; sx++)
			{
				for(uint8_t sy = 0; sy < FontYScale; sy++)
    1ed0:	21 2c       	mov	r2, r1
    1ed2:	52 2c       	mov	r5, r2
	bitoffset = bitsbischar % 8;
	maske = bitoffset % 8;
	
	for(uint8_t xc = 0; xc < charwidth; xc++) // Eigentlcihe Ausgaberoutine
	{
		for(uint8_t yc = 0; yc < FontHeight; yc++)
    1ed4:	80 91 f4 01 	lds	r24, 0x01F4
    1ed8:	81 11       	cpse	r24, r1
    1eda:	57 cf       	rjmp	.-338    	; 0x1d8a <DrawChar+0x1d2>
    1edc:	e8 cf       	rjmp	.-48     	; 0x1eae <DrawChar+0x2f6>
				}
			}
			maske++;
		}
	}
	SetColor(color);
    1ede:	ef 81       	ldd	r30, Y+7	; 0x07
    1ee0:	f8 85       	ldd	r31, Y+8	; 0x08
    1ee2:	f0 93 6e 00 	sts	0x006E, r31
    1ee6:	e0 93 6d 00 	sts	0x006D, r30
	
	// adjust cursor to next position
	cursorX += charwidth * FontXScale + FontSpace;
    1eea:	50 91 68 00 	lds	r21, 0x0068
    1eee:	40 91 66 00 	lds	r20, 0x0066
    1ef2:	29 85       	ldd	r18, Y+9	; 0x09
    1ef4:	3a 85       	ldd	r19, Y+10	; 0x0a
    1ef6:	52 9f       	mul	r21, r18
    1ef8:	c0 01       	movw	r24, r0
    1efa:	53 9f       	mul	r21, r19
    1efc:	90 0d       	add	r25, r0
    1efe:	11 24       	eor	r1, r1
    1f00:	84 0f       	add	r24, r20
    1f02:	91 1d       	adc	r25, r1
    1f04:	20 91 ec 01 	lds	r18, 0x01EC
    1f08:	30 91 ed 01 	lds	r19, 0x01ED
    1f0c:	82 0f       	add	r24, r18
    1f0e:	93 1f       	adc	r25, r19
    1f10:	90 93 ed 01 	sts	0x01ED, r25
    1f14:	80 93 ec 01 	sts	0x01EC, r24
	
	return(charwidth * FontXScale + FontSpace);
    1f18:	84 2f       	mov	r24, r20
    1f1a:	3c 81       	ldd	r19, Y+4	; 0x04
    1f1c:	35 9f       	mul	r19, r21
    1f1e:	80 0d       	add	r24, r0
    1f20:	11 24       	eor	r1, r1
    1f22:	07 c0       	rjmp	.+14     	; 0x1f32 <DrawChar+0x37a>
		cursorX = 0;
	}
	
	// character out of range.
	if( (c < firstchar) || (c > lastchar) || (fontSize == 0))
	return 0;
    1f24:	80 e0       	ldi	r24, 0x00	; 0
    1f26:	05 c0       	rjmp	.+10     	; 0x1f32 <DrawChar+0x37a>
    1f28:	80 e0       	ldi	r24, 0x00	; 0
    1f2a:	03 c0       	rjmp	.+6      	; 0x1f32 <DrawChar+0x37a>
    1f2c:	80 e0       	ldi	r24, 0x00	; 0
    1f2e:	01 c0       	rjmp	.+2      	; 0x1f32 <DrawChar+0x37a>
	
	// character is not in list.
	if (charwidth == 0)
	return 0;
    1f30:	80 e0       	ldi	r24, 0x00	; 0
	
	// adjust cursor to next position
	cursorX += charwidth * FontXScale + FontSpace;
	
	return(charwidth * FontXScale + FontSpace);
}
    1f32:	2a 96       	adiw	r28, 0x0a	; 10
    1f34:	0f b6       	in	r0, 0x3f	; 63
    1f36:	f8 94       	cli
    1f38:	de bf       	out	0x3e, r29	; 62
    1f3a:	0f be       	out	0x3f, r0	; 63
    1f3c:	cd bf       	out	0x3d, r28	; 61
    1f3e:	df 91       	pop	r29
    1f40:	cf 91       	pop	r28
    1f42:	1f 91       	pop	r17
    1f44:	0f 91       	pop	r16
    1f46:	ff 90       	pop	r15
    1f48:	ef 90       	pop	r14
    1f4a:	df 90       	pop	r13
    1f4c:	cf 90       	pop	r12
    1f4e:	bf 90       	pop	r11
    1f50:	af 90       	pop	r10
    1f52:	9f 90       	pop	r9
    1f54:	8f 90       	pop	r8
    1f56:	7f 90       	pop	r7
    1f58:	6f 90       	pop	r6
    1f5a:	5f 90       	pop	r5
    1f5c:	4f 90       	pop	r4
    1f5e:	3f 90       	pop	r3
    1f60:	2f 90       	pop	r2
    1f62:	08 95       	ret

00001f64 <CalcTextWidth>:

unsigned int CalcTextWidth(char *Text)
{
    1f64:	af 92       	push	r10
    1f66:	bf 92       	push	r11
    1f68:	cf 92       	push	r12
    1f6a:	df 92       	push	r13
    1f6c:	ef 92       	push	r14
    1f6e:	ff 92       	push	r15
    1f70:	0f 93       	push	r16
    1f72:	1f 93       	push	r17
    1f74:	cf 93       	push	r28
    1f76:	df 93       	push	r29
	unsigned int strSize = 0;
	unsigned char firstchar =   pgm_read_byte_near(&FontPointer[5]);
    1f78:	00 91 f5 01 	lds	r16, 0x01F5
    1f7c:	10 91 f6 01 	lds	r17, 0x01F6
    1f80:	f8 01       	movw	r30, r16
    1f82:	35 96       	adiw	r30, 0x05	; 5
    1f84:	c4 90       	lpm	r12, Z
	unsigned char lastchar  =   pgm_read_byte_near(&FontPointer[6]);
    1f86:	f8 01       	movw	r30, r16
    1f88:	36 96       	adiw	r30, 0x06	; 6
    1f8a:	b4 90       	lpm	r11, Z
	unsigned char charwidth;
	unsigned char c;
	
	while(*Text)
    1f8c:	dc 01       	movw	r26, r24
    1f8e:	ec 91       	ld	r30, X
    1f90:	ee 23       	and	r30, r30
    1f92:	a9 f1       	breq	.+106    	; 0x1ffe <CalcTextWidth+0x9a>
	{
		c = *Text;
		
		if(FontFixed)
    1f94:	d0 90 ef 01 	lds	r13, 0x01EF
		strSize += FontWidth * FontXScale;
    1f98:	a0 90 f3 01 	lds	r10, 0x01F3
    1f9c:	60 91 68 00 	lds	r22, 0x0068
    1fa0:	70 e0       	ldi	r23, 0x00	; 0
    1fa2:	a6 9e       	mul	r10, r22
    1fa4:	e0 01       	movw	r28, r0
    1fa6:	a7 9e       	mul	r10, r23
    1fa8:	d0 0d       	add	r29, r0
    1faa:	11 24       	eor	r1, r1
			charwidth = FontWidth;
			else
			charwidth = pgm_read_byte_near(&FontPointer[7+c-firstchar]);
			strSize += charwidth * FontXScale;
		}
		strSize += FontSpace;
    1fac:	40 91 66 00 	lds	r20, 0x0066
    1fb0:	50 e0       	ldi	r21, 0x00	; 0
	cursorX += charwidth * FontXScale + FontSpace;
	
	return(charwidth * FontXScale + FontSpace);
}

unsigned int CalcTextWidth(char *Text)
    1fb2:	11 96       	adiw	r26, 0x01	; 1
{
	unsigned int strSize = 0;
    1fb4:	20 e0       	ldi	r18, 0x00	; 0
    1fb6:	30 e0       	ldi	r19, 0x00	; 0
		else
		{
			if( (c < firstchar) || (c > lastchar))
			charwidth = FontWidth;
			else
			charwidth = pgm_read_byte_near(&FontPointer[7+c-firstchar]);
    1fb8:	ec 2c       	mov	r14, r12
    1fba:	f1 2c       	mov	r15, r1
	
	while(*Text)
	{
		c = *Text;
		
		if(FontFixed)
    1fbc:	dd 20       	and	r13, r13
    1fbe:	19 f0       	breq	.+6      	; 0x1fc6 <CalcTextWidth+0x62>
		strSize += FontWidth * FontXScale;
    1fc0:	2c 0f       	add	r18, r28
    1fc2:	3d 1f       	adc	r19, r29
    1fc4:	16 c0       	rjmp	.+44     	; 0x1ff2 <CalcTextWidth+0x8e>
		else
		{
			if( (c < firstchar) || (c > lastchar))
    1fc6:	ec 15       	cp	r30, r12
    1fc8:	50 f0       	brcs	.+20     	; 0x1fde <CalcTextWidth+0x7a>
    1fca:	be 16       	cp	r11, r30
    1fcc:	50 f0       	brcs	.+20     	; 0x1fe2 <CalcTextWidth+0x7e>
			charwidth = FontWidth;
			else
			charwidth = pgm_read_byte_near(&FontPointer[7+c-firstchar]);
    1fce:	f0 e0       	ldi	r31, 0x00	; 0
    1fd0:	37 96       	adiw	r30, 0x07	; 7
    1fd2:	ee 19       	sub	r30, r14
    1fd4:	ff 09       	sbc	r31, r15
    1fd6:	e0 0f       	add	r30, r16
    1fd8:	f1 1f       	adc	r31, r17
    1fda:	e4 91       	lpm	r30, Z
    1fdc:	03 c0       	rjmp	.+6      	; 0x1fe4 <CalcTextWidth+0x80>
		if(FontFixed)
		strSize += FontWidth * FontXScale;
		else
		{
			if( (c < firstchar) || (c > lastchar))
			charwidth = FontWidth;
    1fde:	ea 2d       	mov	r30, r10
    1fe0:	01 c0       	rjmp	.+2      	; 0x1fe4 <CalcTextWidth+0x80>
    1fe2:	ea 2d       	mov	r30, r10
			else
			charwidth = pgm_read_byte_near(&FontPointer[7+c-firstchar]);
			strSize += charwidth * FontXScale;
    1fe4:	e6 9f       	mul	r30, r22
    1fe6:	c0 01       	movw	r24, r0
    1fe8:	e7 9f       	mul	r30, r23
    1fea:	90 0d       	add	r25, r0
    1fec:	11 24       	eor	r1, r1
    1fee:	28 0f       	add	r18, r24
    1ff0:	39 1f       	adc	r19, r25
		}
		strSize += FontSpace;
    1ff2:	24 0f       	add	r18, r20
    1ff4:	35 1f       	adc	r19, r21
	unsigned char firstchar =   pgm_read_byte_near(&FontPointer[5]);
	unsigned char lastchar  =   pgm_read_byte_near(&FontPointer[6]);
	unsigned char charwidth;
	unsigned char c;
	
	while(*Text)
    1ff6:	ed 91       	ld	r30, X+
    1ff8:	e1 11       	cpse	r30, r1
    1ffa:	e0 cf       	rjmp	.-64     	; 0x1fbc <CalcTextWidth+0x58>
    1ffc:	02 c0       	rjmp	.+4      	; 0x2002 <CalcTextWidth+0x9e>
	return(charwidth * FontXScale + FontSpace);
}

unsigned int CalcTextWidth(char *Text)
{
	unsigned int strSize = 0;
    1ffe:	20 e0       	ldi	r18, 0x00	; 0
    2000:	30 e0       	ldi	r19, 0x00	; 0
		}
		strSize += FontSpace;
		Text++;
	}
	return strSize ;
}
    2002:	82 2f       	mov	r24, r18
    2004:	93 2f       	mov	r25, r19
    2006:	df 91       	pop	r29
    2008:	cf 91       	pop	r28
    200a:	1f 91       	pop	r17
    200c:	0f 91       	pop	r16
    200e:	ff 90       	pop	r15
    2010:	ef 90       	pop	r14
    2012:	df 90       	pop	r13
    2014:	cf 90       	pop	r12
    2016:	bf 90       	pop	r11
    2018:	af 90       	pop	r10
    201a:	08 95       	ret

0000201c <DrawStr>:
	return FontHeight * FontYScale;
}

// Nacrtaj string
unsigned int DrawStr(char *Text)
{
    201c:	0f 93       	push	r16
    201e:	1f 93       	push	r17
    2020:	cf 93       	push	r28
    2022:	df 93       	push	r29
    2024:	ec 01       	movw	r28, r24
	char c;
	uint8_t sizeofstring = 0;
	uint8_t counter = 0;
	
	while((c = Text[counter]))
    2026:	88 81       	ld	r24, Y
    2028:	88 23       	and	r24, r24
    202a:	69 f0       	breq	.+26     	; 0x2046 <DrawStr+0x2a>
// Nacrtaj string
unsigned int DrawStr(char *Text)
{
	char c;
	uint8_t sizeofstring = 0;
	uint8_t counter = 0;
    202c:	10 e0       	ldi	r17, 0x00	; 0

// Nacrtaj string
unsigned int DrawStr(char *Text)
{
	char c;
	uint8_t sizeofstring = 0;
    202e:	00 e0       	ldi	r16, 0x00	; 0
	uint8_t counter = 0;
	
	while((c = Text[counter]))
	{
		sizeofstring += DrawChar(c);
    2030:	0e 94 dc 0d 	call	0x1bb8	; 0x1bb8 <DrawChar>
    2034:	08 0f       	add	r16, r24
		counter++;
    2036:	1f 5f       	subi	r17, 0xFF	; 255
{
	char c;
	uint8_t sizeofstring = 0;
	uint8_t counter = 0;
	
	while((c = Text[counter]))
    2038:	fe 01       	movw	r30, r28
    203a:	e1 0f       	add	r30, r17
    203c:	f1 1d       	adc	r31, r1
    203e:	80 81       	ld	r24, Z
    2040:	81 11       	cpse	r24, r1
    2042:	f6 cf       	rjmp	.-20     	; 0x2030 <DrawStr+0x14>
    2044:	01 c0       	rjmp	.+2      	; 0x2048 <DrawStr+0x2c>

// Nacrtaj string
unsigned int DrawStr(char *Text)
{
	char c;
	uint8_t sizeofstring = 0;
    2046:	00 e0       	ldi	r16, 0x00	; 0
	{
		sizeofstring += DrawChar(c);
		counter++;
	}
	return sizeofstring;
}
    2048:	80 2f       	mov	r24, r16
    204a:	90 e0       	ldi	r25, 0x00	; 0
    204c:	df 91       	pop	r29
    204e:	cf 91       	pop	r28
    2050:	1f 91       	pop	r17
    2052:	0f 91       	pop	r16
    2054:	08 95       	ret

00002056 <DrawText>:

// Nacrtaj tekst
void DrawText(uint16_t left, uint16_t top, uint16_t right, uint16_t bottom, char *Text, uint8_t aline)
{
    2056:	8f 92       	push	r8
    2058:	9f 92       	push	r9
    205a:	af 92       	push	r10
    205c:	bf 92       	push	r11
    205e:	cf 92       	push	r12
    2060:	df 92       	push	r13
    2062:	ef 92       	push	r14
    2064:	0f 93       	push	r16
    2066:	1f 93       	push	r17
    2068:	cf 93       	push	r28
    206a:	df 93       	push	r29
    206c:	ec 01       	movw	r28, r24
    206e:	6b 01       	movw	r12, r22
    2070:	4a 01       	movw	r8, r20
    2072:	59 01       	movw	r10, r18
	uint16_t sizeofstring;
	
	sizeofstring = CalcTextWidth(Text);
    2074:	c8 01       	movw	r24, r16
    2076:	0e 94 b2 0f 	call	0x1f64	; 0x1f64 <CalcTextWidth>
	top = top + (bottom - top - FontHeight)/2;
    207a:	ac 18       	sub	r10, r12
    207c:	bd 08       	sbc	r11, r13
    207e:	20 91 f4 01 	lds	r18, 0x01F4
    2082:	a2 1a       	sub	r10, r18
    2084:	b1 08       	sbc	r11, r1
    2086:	b6 94       	lsr	r11
    2088:	a7 94       	ror	r10
    208a:	ca 0c       	add	r12, r10
    208c:	db 1c       	adc	r13, r11
	
	switch (aline)
    208e:	21 e0       	ldi	r18, 0x01	; 1
    2090:	e2 16       	cp	r14, r18
    2092:	21 f0       	breq	.+8      	; 0x209c <DrawText+0x46>
    2094:	22 e0       	ldi	r18, 0x02	; 2
    2096:	e2 12       	cpse	r14, r18
    2098:	10 c0       	rjmp	.+32     	; 0x20ba <DrawText+0x64>
    209a:	09 c0       	rjmp	.+18     	; 0x20ae <DrawText+0x58>
	{
		case ALINE_LEFT:
		break;
		
		case ALINE_CENTER:
		left = left + (right - left - sizeofstring) / 2;
    209c:	8c 1a       	sub	r8, r28
    209e:	9d 0a       	sbc	r9, r29
    20a0:	88 1a       	sub	r8, r24
    20a2:	99 0a       	sbc	r9, r25
    20a4:	96 94       	lsr	r9
    20a6:	87 94       	ror	r8
    20a8:	c8 0d       	add	r28, r8
    20aa:	d9 1d       	adc	r29, r9
		break;
    20ac:	06 c0       	rjmp	.+12     	; 0x20ba <DrawText+0x64>
		
		case ALINE_RIGHT:
		if (right > sizeofstring)
    20ae:	88 15       	cp	r24, r8
    20b0:	99 05       	cpc	r25, r9
    20b2:	18 f4       	brcc	.+6      	; 0x20ba <DrawText+0x64>
		left = right - sizeofstring;
    20b4:	e4 01       	movw	r28, r8
    20b6:	c8 1b       	sub	r28, r24
    20b8:	d9 0b       	sbc	r29, r25
		break;
	}
	
	SetCursorX(left);
    20ba:	d0 93 ed 01 	sts	0x01ED, r29
    20be:	c0 93 ec 01 	sts	0x01EC, r28
	SetCursorY(top);
    20c2:	d0 92 eb 01 	sts	0x01EB, r13
    20c6:	c0 92 ea 01 	sts	0x01EA, r12
	DrawStr(Text);
    20ca:	c8 01       	movw	r24, r16
    20cc:	0e 94 0e 10 	call	0x201c	; 0x201c <DrawStr>
}
    20d0:	df 91       	pop	r29
    20d2:	cf 91       	pop	r28
    20d4:	1f 91       	pop	r17
    20d6:	0f 91       	pop	r16
    20d8:	ef 90       	pop	r14
    20da:	df 90       	pop	r13
    20dc:	cf 90       	pop	r12
    20de:	bf 90       	pop	r11
    20e0:	af 90       	pop	r10
    20e2:	9f 90       	pop	r9
    20e4:	8f 90       	pop	r8
    20e6:	08 95       	ret

000020e8 <Line>:
@param x2,y2 - ending coordinates
@return none

*/
void Line(unsigned int x1, unsigned int y1, unsigned int x2, unsigned int y2)
{
    20e8:	2f 92       	push	r2
    20ea:	3f 92       	push	r3
    20ec:	4f 92       	push	r4
    20ee:	5f 92       	push	r5
    20f0:	6f 92       	push	r6
    20f2:	7f 92       	push	r7
    20f4:	8f 92       	push	r8
    20f6:	9f 92       	push	r9
    20f8:	af 92       	push	r10
    20fa:	bf 92       	push	r11
    20fc:	cf 92       	push	r12
    20fe:	df 92       	push	r13
    2100:	ef 92       	push	r14
    2102:	ff 92       	push	r15
    2104:	0f 93       	push	r16
    2106:	1f 93       	push	r17
    2108:	cf 93       	push	r28
    210a:	df 93       	push	r29
    210c:	cd b7       	in	r28, 0x3d	; 61
    210e:	de b7       	in	r29, 0x3e	; 62
    2110:	2a 97       	sbiw	r28, 0x0a	; 10
    2112:	0f b6       	in	r0, 0x3f	; 63
    2114:	f8 94       	cli
    2116:	de bf       	out	0x3e, r29	; 62
    2118:	0f be       	out	0x3f, r0	; 63
    211a:	cd bf       	out	0x3d, r28	; 61
	signed int  x, y, addx, addy, dx, dy;
	signed long P;
	int i;

	dx = abs((signed int)(x2 - x1));
    211c:	5a 01       	movw	r10, r20
    211e:	a8 1a       	sub	r10, r24
    2120:	b9 0a       	sbc	r11, r25
    2122:	1a f4       	brpl	.+6      	; 0x212a <Line+0x42>
    2124:	b1 94       	neg	r11
    2126:	a1 94       	neg	r10
    2128:	b1 08       	sbc	r11, r1
	dy = abs((signed int)(y2 - y1));
    212a:	f9 01       	movw	r30, r18
    212c:	e6 1b       	sub	r30, r22
    212e:	f7 0b       	sbc	r31, r23
    2130:	1a f4       	brpl	.+6      	; 0x2138 <Line+0x50>
    2132:	f1 95       	neg	r31
    2134:	e1 95       	neg	r30
    2136:	f1 09       	sbc	r31, r1
    2138:	fa 87       	std	Y+10, r31	; 0x0a
    213a:	e9 87       	std	Y+9, r30	; 0x09
	x = x1;
    213c:	6c 01       	movw	r12, r24
	y = y1;
    213e:	7b 01       	movw	r14, r22
	
	addx = addy = 1;
	if(x1 > x2)
    2140:	48 17       	cp	r20, r24
    2142:	59 07       	cpc	r21, r25
    2144:	20 f0       	brcs	.+8      	; 0x214e <Line+0x66>
	dx = abs((signed int)(x2 - x1));
	dy = abs((signed int)(y2 - y1));
	x = x1;
	y = y1;
	
	addx = addy = 1;
    2146:	88 24       	eor	r8, r8
    2148:	83 94       	inc	r8
    214a:	91 2c       	mov	r9, r1
    214c:	03 c0       	rjmp	.+6      	; 0x2154 <Line+0x6c>
	if(x1 > x2)
	addx = -1;
    214e:	88 24       	eor	r8, r8
    2150:	8a 94       	dec	r8
    2152:	98 2c       	mov	r9, r8
	if(y1 > y2)
    2154:	26 17       	cp	r18, r22
    2156:	37 07       	cpc	r19, r23
    2158:	20 f0       	brcs	.+8      	; 0x2162 <Line+0x7a>
	dx = abs((signed int)(x2 - x1));
	dy = abs((signed int)(y2 - y1));
	x = x1;
	y = y1;
	
	addx = addy = 1;
    215a:	22 24       	eor	r2, r2
    215c:	23 94       	inc	r2
    215e:	31 2c       	mov	r3, r1
    2160:	03 c0       	rjmp	.+6      	; 0x2168 <Line+0x80>
	if(x1 > x2)
	addx = -1;
	if(y1 > y2)
	addy = -1;
    2162:	22 24       	eor	r2, r2
    2164:	2a 94       	dec	r2
    2166:	32 2c       	mov	r3, r2
	
	if (dx >= dy)
    2168:	29 85       	ldd	r18, Y+9	; 0x09
    216a:	3a 85       	ldd	r19, Y+10	; 0x0a
    216c:	a2 16       	cp	r10, r18
    216e:	b3 06       	cpc	r11, r19
    2170:	0c f4       	brge	.+2      	; 0x2174 <Line+0x8c>
    2172:	5a c0       	rjmp	.+180    	; 0x2228 <Line+0x140>
	{
		P = 2L*dy - dx;
    2174:	29 01       	movw	r4, r18
    2176:	66 24       	eor	r6, r6
    2178:	57 fc       	sbrc	r5, 7
    217a:	60 94       	com	r6
    217c:	76 2c       	mov	r7, r6
    217e:	44 0c       	add	r4, r4
    2180:	55 1c       	adc	r5, r5
    2182:	66 1c       	adc	r6, r6
    2184:	77 1c       	adc	r7, r7
    2186:	a5 01       	movw	r20, r10
    2188:	66 27       	eor	r22, r22
    218a:	57 fd       	sbrc	r21, 7
    218c:	60 95       	com	r22
    218e:	76 2f       	mov	r23, r22
    2190:	44 1a       	sub	r4, r20
    2192:	55 0a       	sbc	r5, r21
    2194:	66 0a       	sbc	r6, r22
    2196:	77 0a       	sbc	r7, r23
		for (i=0; i<=dx; ++i)
    2198:	bb 20       	and	r11, r11
    219a:	0c f4       	brge	.+2      	; 0x219e <Line+0xb6>
    219c:	9f c0       	rjmp	.+318    	; 0x22dc <Line+0x1f4>
		{
			PutPixel(x, y);
			if(P < 0)
			{
				P += 2*dy;
    219e:	22 0f       	add	r18, r18
    21a0:	33 1f       	adc	r19, r19
    21a2:	a9 01       	movw	r20, r18
    21a4:	66 27       	eor	r22, r22
    21a6:	57 fd       	sbrc	r21, 7
    21a8:	60 95       	com	r22
    21aa:	76 2f       	mov	r23, r22
    21ac:	4d 83       	std	Y+5, r20	; 0x05
    21ae:	5e 83       	std	Y+6, r21	; 0x06
    21b0:	6f 83       	std	Y+7, r22	; 0x07
    21b2:	78 87       	std	Y+8, r23	; 0x08
				x += addx;
			}
			else
			{
				P += 2*dy - 2*dx;
    21b4:	29 85       	ldd	r18, Y+9	; 0x09
    21b6:	3a 85       	ldd	r19, Y+10	; 0x0a
    21b8:	2a 19       	sub	r18, r10
    21ba:	3b 09       	sbc	r19, r11
    21bc:	b9 01       	movw	r22, r18
    21be:	66 0f       	add	r22, r22
    21c0:	77 1f       	adc	r23, r23
    21c2:	9b 01       	movw	r18, r22
    21c4:	44 27       	eor	r20, r20
    21c6:	37 fd       	sbrc	r19, 7
    21c8:	40 95       	com	r20
    21ca:	54 2f       	mov	r21, r20
    21cc:	29 83       	std	Y+1, r18	; 0x01
    21ce:	3a 83       	std	Y+2, r19	; 0x02
    21d0:	4b 83       	std	Y+3, r20	; 0x03
    21d2:	5c 83       	std	Y+4, r21	; 0x04
@param x1,y1 - starting coordinates
@param x2,y2 - ending coordinates
@return none

*/
void Line(unsigned int x1, unsigned int y1, unsigned int x2, unsigned int y2)
    21d4:	64 01       	movw	r12, r8
    21d6:	84 01       	movw	r16, r8
    21d8:	08 0f       	add	r16, r24
    21da:	19 1f       	adc	r17, r25
	addy = -1;
	
	if (dx >= dy)
	{
		P = 2L*dy - dx;
		for (i=0; i<=dx; ++i)
    21dc:	81 2c       	mov	r8, r1
    21de:	91 2c       	mov	r9, r1
		{
			PutPixel(x, y);
    21e0:	b7 01       	movw	r22, r14
    21e2:	c8 01       	movw	r24, r16
    21e4:	8c 19       	sub	r24, r12
    21e6:	9d 09       	sbc	r25, r13
    21e8:	0e 94 0c 20 	call	0x4018	; 0x4018 <LCD_PutPixel>
			if(P < 0)
    21ec:	77 20       	and	r7, r7
    21ee:	4c f4       	brge	.+18     	; 0x2202 <Line+0x11a>
			{
				P += 2*dy;
    21f0:	4d 81       	ldd	r20, Y+5	; 0x05
    21f2:	5e 81       	ldd	r21, Y+6	; 0x06
    21f4:	6f 81       	ldd	r22, Y+7	; 0x07
    21f6:	78 85       	ldd	r23, Y+8	; 0x08
    21f8:	44 0e       	add	r4, r20
    21fa:	55 1e       	adc	r5, r21
    21fc:	66 1e       	adc	r6, r22
    21fe:	77 1e       	adc	r7, r23
    2200:	0a c0       	rjmp	.+20     	; 0x2216 <Line+0x12e>
				x += addx;
			}
			else
			{
				P += 2*dy - 2*dx;
    2202:	69 81       	ldd	r22, Y+1	; 0x01
    2204:	7a 81       	ldd	r23, Y+2	; 0x02
    2206:	8b 81       	ldd	r24, Y+3	; 0x03
    2208:	9c 81       	ldd	r25, Y+4	; 0x04
    220a:	46 0e       	add	r4, r22
    220c:	57 1e       	adc	r5, r23
    220e:	68 1e       	adc	r6, r24
    2210:	79 1e       	adc	r7, r25
				x += addx;
				y += addy;
    2212:	e2 0c       	add	r14, r2
    2214:	f3 1c       	adc	r15, r3
	addy = -1;
	
	if (dx >= dy)
	{
		P = 2L*dy - dx;
		for (i=0; i<=dx; ++i)
    2216:	7f ef       	ldi	r23, 0xFF	; 255
    2218:	87 1a       	sub	r8, r23
    221a:	97 0a       	sbc	r9, r23
    221c:	0c 0d       	add	r16, r12
    221e:	1d 1d       	adc	r17, r13
    2220:	a8 14       	cp	r10, r8
    2222:	b9 04       	cpc	r11, r9
    2224:	ec f6       	brge	.-70     	; 0x21e0 <Line+0xf8>
    2226:	5a c0       	rjmp	.+180    	; 0x22dc <Line+0x1f4>
			}
		}
	}
	else
	{
		P = 2L*dx - dy;
    2228:	25 01       	movw	r4, r10
    222a:	66 24       	eor	r6, r6
    222c:	57 fc       	sbrc	r5, 7
    222e:	60 94       	com	r6
    2230:	76 2c       	mov	r7, r6
    2232:	44 0c       	add	r4, r4
    2234:	55 1c       	adc	r5, r5
    2236:	66 1c       	adc	r6, r6
    2238:	77 1c       	adc	r7, r7
    223a:	e9 85       	ldd	r30, Y+9	; 0x09
    223c:	fa 85       	ldd	r31, Y+10	; 0x0a
    223e:	cf 01       	movw	r24, r30
    2240:	aa 27       	eor	r26, r26
    2242:	97 fd       	sbrc	r25, 7
    2244:	a0 95       	com	r26
    2246:	ba 2f       	mov	r27, r26
    2248:	48 1a       	sub	r4, r24
    224a:	59 0a       	sbc	r5, r25
    224c:	6a 0a       	sbc	r6, r26
    224e:	7b 0a       	sbc	r7, r27
		for(i=0; i<=dy; ++i)
    2250:	ff 23       	and	r31, r31
    2252:	0c f4       	brge	.+2      	; 0x2256 <Line+0x16e>
    2254:	43 c0       	rjmp	.+134    	; 0x22dc <Line+0x1f4>
		{
			PutPixel(x, y);
			if(P < 0)
			{
				P += 2*dx;
    2256:	c5 01       	movw	r24, r10
    2258:	88 0f       	add	r24, r24
    225a:	99 1f       	adc	r25, r25
    225c:	9c 01       	movw	r18, r24
    225e:	44 27       	eor	r20, r20
    2260:	37 fd       	sbrc	r19, 7
    2262:	40 95       	com	r20
    2264:	54 2f       	mov	r21, r20
    2266:	2d 83       	std	Y+5, r18	; 0x05
    2268:	3e 83       	std	Y+6, r19	; 0x06
    226a:	4f 83       	std	Y+7, r20	; 0x07
    226c:	58 87       	std	Y+8, r21	; 0x08
				y += addy;
			}
			else
			{
				P += 2*dx - 2*dy;
    226e:	ae 1a       	sub	r10, r30
    2270:	bf 0a       	sbc	r11, r31
    2272:	aa 0c       	add	r10, r10
    2274:	bb 1c       	adc	r11, r11
    2276:	c5 01       	movw	r24, r10
    2278:	aa 27       	eor	r26, r26
    227a:	97 fd       	sbrc	r25, 7
    227c:	a0 95       	com	r26
    227e:	ba 2f       	mov	r27, r26
    2280:	89 83       	std	Y+1, r24	; 0x01
    2282:	9a 83       	std	Y+2, r25	; 0x02
    2284:	ab 83       	std	Y+3, r26	; 0x03
    2286:	bc 83       	std	Y+4, r27	; 0x04
@param x1,y1 - starting coordinates
@param x2,y2 - ending coordinates
@return none

*/
void Line(unsigned int x1, unsigned int y1, unsigned int x2, unsigned int y2)
    2288:	51 01       	movw	r10, r2
    228a:	71 01       	movw	r14, r2
    228c:	e6 0e       	add	r14, r22
    228e:	f7 1e       	adc	r15, r23
		}
	}
	else
	{
		P = 2L*dx - dy;
		for(i=0; i<=dy; ++i)
    2290:	00 e0       	ldi	r16, 0x00	; 0
    2292:	10 e0       	ldi	r17, 0x00	; 0
@param x1,y1 - starting coordinates
@param x2,y2 - ending coordinates
@return none

*/
void Line(unsigned int x1, unsigned int y1, unsigned int x2, unsigned int y2)
    2294:	b7 01       	movw	r22, r14
    2296:	6a 19       	sub	r22, r10
    2298:	7b 09       	sbc	r23, r11
	else
	{
		P = 2L*dx - dy;
		for(i=0; i<=dy; ++i)
		{
			PutPixel(x, y);
    229a:	c6 01       	movw	r24, r12
    229c:	0e 94 0c 20 	call	0x4018	; 0x4018 <LCD_PutPixel>
			if(P < 0)
    22a0:	77 20       	and	r7, r7
    22a2:	4c f4       	brge	.+18     	; 0x22b6 <Line+0x1ce>
			{
				P += 2*dx;
    22a4:	2d 81       	ldd	r18, Y+5	; 0x05
    22a6:	3e 81       	ldd	r19, Y+6	; 0x06
    22a8:	4f 81       	ldd	r20, Y+7	; 0x07
    22aa:	58 85       	ldd	r21, Y+8	; 0x08
    22ac:	42 0e       	add	r4, r18
    22ae:	53 1e       	adc	r5, r19
    22b0:	64 1e       	adc	r6, r20
    22b2:	75 1e       	adc	r7, r21
    22b4:	0a c0       	rjmp	.+20     	; 0x22ca <Line+0x1e2>
				y += addy;
			}
			else
			{
				P += 2*dx - 2*dy;
    22b6:	49 81       	ldd	r20, Y+1	; 0x01
    22b8:	5a 81       	ldd	r21, Y+2	; 0x02
    22ba:	6b 81       	ldd	r22, Y+3	; 0x03
    22bc:	7c 81       	ldd	r23, Y+4	; 0x04
    22be:	44 0e       	add	r4, r20
    22c0:	55 1e       	adc	r5, r21
    22c2:	66 1e       	adc	r6, r22
    22c4:	77 1e       	adc	r7, r23
				x += addx;
    22c6:	c8 0c       	add	r12, r8
    22c8:	d9 1c       	adc	r13, r9
		}
	}
	else
	{
		P = 2L*dx - dy;
		for(i=0; i<=dy; ++i)
    22ca:	0f 5f       	subi	r16, 0xFF	; 255
    22cc:	1f 4f       	sbci	r17, 0xFF	; 255
    22ce:	ea 0c       	add	r14, r10
    22d0:	fb 1c       	adc	r15, r11
    22d2:	69 85       	ldd	r22, Y+9	; 0x09
    22d4:	7a 85       	ldd	r23, Y+10	; 0x0a
    22d6:	60 17       	cp	r22, r16
    22d8:	71 07       	cpc	r23, r17
    22da:	e4 f6       	brge	.-72     	; 0x2294 <Line+0x1ac>
				x += addx;
				y += addy;
			}
		}
	}
}
    22dc:	2a 96       	adiw	r28, 0x0a	; 10
    22de:	0f b6       	in	r0, 0x3f	; 63
    22e0:	f8 94       	cli
    22e2:	de bf       	out	0x3e, r29	; 62
    22e4:	0f be       	out	0x3f, r0	; 63
    22e6:	cd bf       	out	0x3d, r28	; 61
    22e8:	df 91       	pop	r29
    22ea:	cf 91       	pop	r28
    22ec:	1f 91       	pop	r17
    22ee:	0f 91       	pop	r16
    22f0:	ff 90       	pop	r15
    22f2:	ef 90       	pop	r14
    22f4:	df 90       	pop	r13
    22f6:	cf 90       	pop	r12
    22f8:	bf 90       	pop	r11
    22fa:	af 90       	pop	r10
    22fc:	9f 90       	pop	r9
    22fe:	8f 90       	pop	r8
    2300:	7f 90       	pop	r7
    2302:	6f 90       	pop	r6
    2304:	5f 90       	pop	r5
    2306:	4f 90       	pop	r4
    2308:	3f 90       	pop	r3
    230a:	2f 90       	pop	r2
    230c:	08 95       	ret

0000230e <Rectangle>:
@param x1,y1 - starting coordinates
@param x2,y2 - ending coordinates
@return none
*/
void Rectangle(unsigned int x1, unsigned int y1, unsigned int x2, unsigned int y2)
{
    230e:	af 92       	push	r10
    2310:	bf 92       	push	r11
    2312:	cf 92       	push	r12
    2314:	df 92       	push	r13
    2316:	ef 92       	push	r14
    2318:	ff 92       	push	r15
    231a:	0f 93       	push	r16
    231c:	1f 93       	push	r17
    231e:	cf 93       	push	r28
    2320:	df 93       	push	r29
    2322:	5c 01       	movw	r10, r24
    2324:	7b 01       	movw	r14, r22
    2326:	ea 01       	movw	r28, r20
    2328:	69 01       	movw	r12, r18
	FillRectangle(x1, y1, x2, y1);    // top
    232a:	00 91 6d 00 	lds	r16, 0x006D
    232e:	10 91 6e 00 	lds	r17, 0x006E
    2332:	9b 01       	movw	r18, r22
    2334:	0e 94 15 20 	call	0x402a	; 0x402a <LCD_Bar>
	FillRectangle(x1, y2, x2, y2);    // bottom
    2338:	00 91 6d 00 	lds	r16, 0x006D
    233c:	10 91 6e 00 	lds	r17, 0x006E
    2340:	96 01       	movw	r18, r12
    2342:	ae 01       	movw	r20, r28
    2344:	b6 01       	movw	r22, r12
    2346:	c5 01       	movw	r24, r10
    2348:	0e 94 15 20 	call	0x402a	; 0x402a <LCD_Bar>
	FillRectangle(x1, y1, x1, y2);    // left
    234c:	00 91 6d 00 	lds	r16, 0x006D
    2350:	10 91 6e 00 	lds	r17, 0x006E
    2354:	96 01       	movw	r18, r12
    2356:	a5 01       	movw	r20, r10
    2358:	b7 01       	movw	r22, r14
    235a:	c5 01       	movw	r24, r10
    235c:	0e 94 15 20 	call	0x402a	; 0x402a <LCD_Bar>
	FillRectangle(x2, y1, x2, y2);    // right
    2360:	00 91 6d 00 	lds	r16, 0x006D
    2364:	10 91 6e 00 	lds	r17, 0x006E
    2368:	96 01       	movw	r18, r12
    236a:	ae 01       	movw	r20, r28
    236c:	b7 01       	movw	r22, r14
    236e:	ce 01       	movw	r24, r28
    2370:	0e 94 15 20 	call	0x402a	; 0x402a <LCD_Bar>
}
    2374:	df 91       	pop	r29
    2376:	cf 91       	pop	r28
    2378:	1f 91       	pop	r17
    237a:	0f 91       	pop	r16
    237c:	ff 90       	pop	r15
    237e:	ef 90       	pop	r14
    2380:	df 90       	pop	r13
    2382:	cf 90       	pop	r12
    2384:	bf 90       	pop	r11
    2386:	af 90       	pop	r10
    2388:	08 95       	ret

0000238a <RoundRectangle>:
@param rad - defines the radius of the circle
@param fill - fill yes or no
@return none
*/
void RoundRectangle(unsigned int x1, unsigned int y1, unsigned int x2, unsigned int y2, unsigned int radius, unsigned char fill)
{
    238a:	2f 92       	push	r2
    238c:	3f 92       	push	r3
    238e:	4f 92       	push	r4
    2390:	5f 92       	push	r5
    2392:	6f 92       	push	r6
    2394:	7f 92       	push	r7
    2396:	8f 92       	push	r8
    2398:	9f 92       	push	r9
    239a:	af 92       	push	r10
    239c:	bf 92       	push	r11
    239e:	cf 92       	push	r12
    23a0:	df 92       	push	r13
    23a2:	ef 92       	push	r14
    23a4:	ff 92       	push	r15
    23a6:	0f 93       	push	r16
    23a8:	1f 93       	push	r17
    23aa:	cf 93       	push	r28
    23ac:	df 93       	push	r29
    23ae:	cd b7       	in	r28, 0x3d	; 61
    23b0:	de b7       	in	r29, 0x3e	; 62
    23b2:	64 97       	sbiw	r28, 0x14	; 20
    23b4:	0f b6       	in	r0, 0x3f	; 63
    23b6:	f8 94       	cli
    23b8:	de bf       	out	0x3e, r29	; 62
    23ba:	0f be       	out	0x3f, r0	; 63
    23bc:	cd bf       	out	0x3d, r28	; 61
    23be:	98 87       	std	Y+8, r25	; 0x08
    23c0:	8f 83       	std	Y+7, r24	; 0x07
    23c2:	1b 01       	movw	r2, r22
    23c4:	5a 87       	std	Y+10, r21	; 0x0a
    23c6:	49 87       	std	Y+9, r20	; 0x09
    23c8:	3a 83       	std	Y+2, r19	; 0x02
    23ca:	29 83       	std	Y+1, r18	; 0x01
    23cc:	1c 87       	std	Y+12, r17	; 0x0c
    23ce:	0b 87       	std	Y+11, r16	; 0x0b
	signed int a, b, P;
	signed int bx, ay;
	
	if (fill)
    23d0:	ee 20       	and	r14, r14
    23d2:	09 f4       	brne	.+2      	; 0x23d6 <RoundRectangle+0x4c>
    23d4:	d1 c0       	rjmp	.+418    	; 0x2578 <RoundRectangle+0x1ee>
	{
		a = 0;       // increment by 1
		b = radius;  // decrement by 1 using P
    23d6:	58 01       	movw	r10, r16
		P = 1 - radius;
    23d8:	81 e0       	ldi	r24, 0x01	; 1
    23da:	90 e0       	ldi	r25, 0x00	; 0
    23dc:	3c 01       	movw	r6, r24
    23de:	60 1a       	sub	r6, r16
    23e0:	71 0a       	sbc	r7, r17
		bx = b;
		ay = a;
		
		FillRectangle(x1, y1-radius+1, x2, y2+radius-1);
    23e2:	21 50       	subi	r18, 0x01	; 1
    23e4:	31 09       	sbc	r19, r1
    23e6:	3c 83       	std	Y+4, r19	; 0x04
    23e8:	2b 83       	std	Y+3, r18	; 0x03
    23ea:	9b 01       	movw	r18, r22
    23ec:	2f 5f       	subi	r18, 0xFF	; 255
    23ee:	3f 4f       	sbci	r19, 0xFF	; 255
    23f0:	3e 83       	std	Y+6, r19	; 0x06
    23f2:	2d 83       	std	Y+5, r18	; 0x05
    23f4:	00 91 6d 00 	lds	r16, 0x006D
    23f8:	10 91 6e 00 	lds	r17, 0x006E
    23fc:	2b 81       	ldd	r18, Y+3	; 0x03
    23fe:	3c 81       	ldd	r19, Y+4	; 0x04
    2400:	2a 0d       	add	r18, r10
    2402:	3b 1d       	adc	r19, r11
    2404:	6d 81       	ldd	r22, Y+5	; 0x05
    2406:	7e 81       	ldd	r23, Y+6	; 0x06
    2408:	6a 19       	sub	r22, r10
    240a:	7b 09       	sbc	r23, r11
    240c:	8f 81       	ldd	r24, Y+7	; 0x07
    240e:	98 85       	ldd	r25, Y+8	; 0x08
    2410:	0e 94 15 20 	call	0x402a	; 0x402a <LCD_Bar>
	if (fill)
	{
		a = 0;       // increment by 1
		b = radius;  // decrement by 1 using P
		P = 1 - radius;
		bx = b;
    2414:	4b 84       	ldd	r4, Y+11	; 0x0b
    2416:	5c 84       	ldd	r5, Y+12	; 0x0c
		ay = a;
		
		FillRectangle(x1, y1-radius+1, x2, y2+radius-1);
    2418:	03 e0       	ldi	r16, 0x03	; 3
    241a:	10 e0       	ldi	r17, 0x00	; 0
    241c:	ee 24       	eor	r14, r14
    241e:	e3 94       	inc	r14
    2420:	f1 2c       	mov	r15, r1
@param x2, y2 - coordinate position of the lower right center
@param rad - defines the radius of the circle
@param fill - fill yes or no
@return none
*/
void RoundRectangle(unsigned int x1, unsigned int y1, unsigned int x2, unsigned int y2, unsigned int radius, unsigned char fill)
    2422:	8f 81       	ldd	r24, Y+7	; 0x07
    2424:	98 85       	ldd	r25, Y+8	; 0x08
    2426:	01 96       	adiw	r24, 0x01	; 1
    2428:	98 8b       	std	Y+16, r25	; 0x10
    242a:	8f 87       	std	Y+15, r24	; 0x0f
    242c:	e9 85       	ldd	r30, Y+9	; 0x09
    242e:	fa 85       	ldd	r31, Y+10	; 0x0a
    2430:	31 97       	sbiw	r30, 0x01	; 1
    2432:	fa 8b       	std	Y+18, r31	; 0x12
    2434:	e9 8b       	std	Y+17, r30	; 0x11
    2436:	fc 8a       	std	Y+20, r15	; 0x14
    2438:	eb 8a       	std	Y+19, r14	; 0x13
    243a:	3e 86       	std	Y+14, r3	; 0x0e
    243c:	2d 86       	std	Y+13, r2	; 0x0d
    243e:	18 01       	movw	r2, r16
    2440:	30 c0       	rjmp	.+96     	; 0x24a2 <RoundRectangle+0x118>
		ay = a;
		
		FillRectangle(x1, y1-radius+1, x2, y2+radius-1);
		do
		{
			if (bx != b)
    2442:	4a 14       	cp	r4, r10
    2444:	5b 04       	cpc	r5, r11
    2446:	29 f1       	breq	.+74     	; 0x2492 <RoundRectangle+0x108>
@param x2, y2 - coordinate position of the lower right center
@param rad - defines the radius of the circle
@param fill - fill yes or no
@return none
*/
void RoundRectangle(unsigned int x1, unsigned int y1, unsigned int x2, unsigned int y2, unsigned int radius, unsigned char fill)
    2448:	cb 80       	ldd	r12, Y+3	; 0x03
    244a:	dc 80       	ldd	r13, Y+4	; 0x04
    244c:	2b 89       	ldd	r18, Y+19	; 0x13
    244e:	3c 89       	ldd	r19, Y+20	; 0x14
    2450:	c2 0e       	add	r12, r18
    2452:	d3 1e       	adc	r13, r19
    2454:	ed 80       	ldd	r14, Y+5	; 0x05
    2456:	fe 80       	ldd	r15, Y+6	; 0x06
    2458:	e2 1a       	sub	r14, r18
    245a:	f3 0a       	sbc	r15, r19
		FillRectangle(x1, y1-radius+1, x2, y2+radius-1);
		do
		{
			if (bx != b)
			{
				FillRectangle(x1-bx, y1-ay, x1-bx, y2+ay); // left in
    245c:	8f 81       	ldd	r24, Y+7	; 0x07
    245e:	98 85       	ldd	r25, Y+8	; 0x08
    2460:	84 19       	sub	r24, r4
    2462:	95 09       	sbc	r25, r5
    2464:	00 91 6d 00 	lds	r16, 0x006D
    2468:	10 91 6e 00 	lds	r17, 0x006E
    246c:	96 01       	movw	r18, r12
    246e:	ac 01       	movw	r20, r24
    2470:	b7 01       	movw	r22, r14
    2472:	0e 94 15 20 	call	0x402a	; 0x402a <LCD_Bar>
				FillRectangle(x2+bx, y1-ay, x2+bx, y2+ay); // right in
    2476:	89 85       	ldd	r24, Y+9	; 0x09
    2478:	9a 85       	ldd	r25, Y+10	; 0x0a
    247a:	84 0d       	add	r24, r4
    247c:	95 1d       	adc	r25, r5
    247e:	00 91 6d 00 	lds	r16, 0x006D
    2482:	10 91 6e 00 	lds	r17, 0x006E
    2486:	96 01       	movw	r18, r12
    2488:	ac 01       	movw	r20, r24
    248a:	b7 01       	movw	r22, r14
    248c:	0e 94 15 20 	call	0x402a	; 0x402a <LCD_Bar>
    2490:	25 01       	movw	r4, r10
    2492:	8b 89       	ldd	r24, Y+19	; 0x13
    2494:	9c 89       	ldd	r25, Y+20	; 0x14
    2496:	01 96       	adiw	r24, 0x01	; 1
    2498:	9c 8b       	std	Y+20, r25	; 0x14
    249a:	8b 8b       	std	Y+19, r24	; 0x13
    249c:	92 e0       	ldi	r25, 0x02	; 2
    249e:	29 0e       	add	r2, r25
    24a0:	31 1c       	adc	r3, r1
@param x2, y2 - coordinate position of the lower right center
@param rad - defines the radius of the circle
@param fill - fill yes or no
@return none
*/
void RoundRectangle(unsigned int x1, unsigned int y1, unsigned int x2, unsigned int y2, unsigned int radius, unsigned char fill)
    24a2:	8b 88       	ldd	r8, Y+19	; 0x13
    24a4:	9c 88       	ldd	r9, Y+20	; 0x14
    24a6:	e1 e0       	ldi	r30, 0x01	; 1
    24a8:	8e 1a       	sub	r8, r30
    24aa:	91 08       	sbc	r9, r1
				FillRectangle(x1-bx, y1-ay, x1-bx, y2+ay); // left in
				FillRectangle(x2+bx, y1-ay, x2+bx, y2+ay); // right in
				bx = b;
			}
			ay = a;
			if (a != b)
    24ac:	8a 14       	cp	r8, r10
    24ae:	9b 04       	cpc	r9, r11
    24b0:	41 f1       	breq	.+80     	; 0x2502 <RoundRectangle+0x178>
			{
				FillRectangle(x1-a, y1-b, x1, y2+b); // left out
    24b2:	c9 80       	ldd	r12, Y+1	; 0x01
    24b4:	da 80       	ldd	r13, Y+2	; 0x02
    24b6:	ca 0c       	add	r12, r10
    24b8:	db 1c       	adc	r13, r11
    24ba:	ed 84       	ldd	r14, Y+13	; 0x0d
    24bc:	fe 84       	ldd	r15, Y+14	; 0x0e
    24be:	ea 18       	sub	r14, r10
    24c0:	fb 08       	sbc	r15, r11
    24c2:	00 91 6d 00 	lds	r16, 0x006D
    24c6:	10 91 6e 00 	lds	r17, 0x006E
    24ca:	96 01       	movw	r18, r12
    24cc:	4f 81       	ldd	r20, Y+7	; 0x07
    24ce:	58 85       	ldd	r21, Y+8	; 0x08
    24d0:	b7 01       	movw	r22, r14
    24d2:	8f 85       	ldd	r24, Y+15	; 0x0f
    24d4:	98 89       	ldd	r25, Y+16	; 0x10
    24d6:	eb 89       	ldd	r30, Y+19	; 0x13
    24d8:	fc 89       	ldd	r31, Y+20	; 0x14
    24da:	8e 1b       	sub	r24, r30
    24dc:	9f 0b       	sbc	r25, r31
    24de:	0e 94 15 20 	call	0x402a	; 0x402a <LCD_Bar>
				FillRectangle(x2  , y1-b, x2+a, y2+b); // rigth out
    24e2:	00 91 6d 00 	lds	r16, 0x006D
    24e6:	10 91 6e 00 	lds	r17, 0x006E
@param x2, y2 - coordinate position of the lower right center
@param rad - defines the radius of the circle
@param fill - fill yes or no
@return none
*/
void RoundRectangle(unsigned int x1, unsigned int y1, unsigned int x2, unsigned int y2, unsigned int radius, unsigned char fill)
    24ea:	49 89       	ldd	r20, Y+17	; 0x11
    24ec:	5a 89       	ldd	r21, Y+18	; 0x12
    24ee:	2b 89       	ldd	r18, Y+19	; 0x13
    24f0:	3c 89       	ldd	r19, Y+20	; 0x14
    24f2:	42 0f       	add	r20, r18
    24f4:	53 1f       	adc	r21, r19
			}
			ay = a;
			if (a != b)
			{
				FillRectangle(x1-a, y1-b, x1, y2+b); // left out
				FillRectangle(x2  , y1-b, x2+a, y2+b); // rigth out
    24f6:	96 01       	movw	r18, r12
    24f8:	b7 01       	movw	r22, r14
    24fa:	89 85       	ldd	r24, Y+9	; 0x09
    24fc:	9a 85       	ldd	r25, Y+10	; 0x0a
    24fe:	0e 94 15 20 	call	0x402a	; 0x402a <LCD_Bar>
			}
			if(P < 0)
    2502:	77 20       	and	r7, r7
    2504:	2c f4       	brge	.+10     	; 0x2510 <RoundRectangle+0x186>
			P+= 3 + 2*a++;
    2506:	62 0c       	add	r6, r2
    2508:	73 1c       	adc	r7, r3
    250a:	8b 89       	ldd	r24, Y+19	; 0x13
    250c:	9c 89       	ldd	r25, Y+20	; 0x14
    250e:	02 c1       	rjmp	.+516    	; 0x2714 <RoundRectangle+0x38a>
			else
			P+= 5 + 2*(a++ - b--);
    2510:	c4 01       	movw	r24, r8
    2512:	8a 19       	sub	r24, r10
    2514:	9b 09       	sbc	r25, r11
    2516:	88 0f       	add	r24, r24
    2518:	99 1f       	adc	r25, r25
    251a:	05 96       	adiw	r24, 0x05	; 5
    251c:	68 0e       	add	r6, r24
    251e:	79 1e       	adc	r7, r25
    2520:	8b 89       	ldd	r24, Y+19	; 0x13
    2522:	9c 89       	ldd	r25, Y+20	; 0x14
    2524:	31 e0       	ldi	r19, 0x01	; 1
    2526:	a3 1a       	sub	r10, r19
    2528:	b1 08       	sbc	r11, r1
    252a:	f4 c0       	rjmp	.+488    	; 0x2714 <RoundRectangle+0x38a>
    252c:	2d 84       	ldd	r2, Y+13	; 0x0d
    252e:	3e 84       	ldd	r3, Y+14	; 0x0e
		} while(a <= b);
		
		if (fill && (bx != b))
    2530:	4a 14       	cp	r4, r10
    2532:	5b 04       	cpc	r5, r11
    2534:	09 f1       	breq	.+66     	; 0x2578 <RoundRectangle+0x1ee>
		{
			FillRectangle(x1-bx, y1-ay, x1-bx, y2+ay); // left in
    2536:	e9 80       	ldd	r14, Y+1	; 0x01
    2538:	fa 80       	ldd	r15, Y+2	; 0x02
    253a:	e8 0c       	add	r14, r8
    253c:	f9 1c       	adc	r15, r9
    253e:	61 01       	movw	r12, r2
    2540:	c8 18       	sub	r12, r8
    2542:	d9 08       	sbc	r13, r9
    2544:	8f 81       	ldd	r24, Y+7	; 0x07
    2546:	98 85       	ldd	r25, Y+8	; 0x08
    2548:	84 19       	sub	r24, r4
    254a:	95 09       	sbc	r25, r5
    254c:	00 91 6d 00 	lds	r16, 0x006D
    2550:	10 91 6e 00 	lds	r17, 0x006E
    2554:	97 01       	movw	r18, r14
    2556:	ac 01       	movw	r20, r24
    2558:	b6 01       	movw	r22, r12
    255a:	0e 94 15 20 	call	0x402a	; 0x402a <LCD_Bar>
			FillRectangle(x2+bx, y1-ay, x2+bx, y2+ay); // right in
    255e:	89 85       	ldd	r24, Y+9	; 0x09
    2560:	9a 85       	ldd	r25, Y+10	; 0x0a
    2562:	84 0d       	add	r24, r4
    2564:	95 1d       	adc	r25, r5
    2566:	00 91 6d 00 	lds	r16, 0x006D
    256a:	10 91 6e 00 	lds	r17, 0x006E
    256e:	97 01       	movw	r18, r14
    2570:	ac 01       	movw	r20, r24
    2572:	b6 01       	movw	r22, r12
    2574:	0e 94 15 20 	call	0x402a	; 0x402a <LCD_Bar>
	}
	
	// draw broder
	{
		a = 0;       // increment by 1
		b = radius;  // decrement by 1 using P
    2578:	0b 85       	ldd	r16, Y+11	; 0x0b
    257a:	1c 85       	ldd	r17, Y+12	; 0x0c
		P = 1 - radius;
    257c:	81 e0       	ldi	r24, 0x01	; 1
    257e:	90 e0       	ldi	r25, 0x00	; 0
    2580:	3c 01       	movw	r6, r24
    2582:	60 1a       	sub	r6, r16
    2584:	71 0a       	sbc	r7, r17
    2586:	0f 2e       	mov	r0, r31
    2588:	f3 e0       	ldi	r31, 0x03	; 3
    258a:	4f 2e       	mov	r4, r31
    258c:	51 2c       	mov	r5, r1
    258e:	f0 2d       	mov	r31, r0
    2590:	ee 24       	eor	r14, r14
    2592:	e3 94       	inc	r14
    2594:	f1 2c       	mov	r15, r1
@param x2, y2 - coordinate position of the lower right center
@param rad - defines the radius of the circle
@param fill - fill yes or no
@return none
*/
void RoundRectangle(unsigned int x1, unsigned int y1, unsigned int x2, unsigned int y2, unsigned int radius, unsigned char fill)
    2596:	8f 81       	ldd	r24, Y+7	; 0x07
    2598:	98 85       	ldd	r25, Y+8	; 0x08
    259a:	01 96       	adiw	r24, 0x01	; 1
    259c:	9c 83       	std	Y+4, r25	; 0x04
    259e:	8b 83       	std	Y+3, r24	; 0x03
    25a0:	e9 85       	ldd	r30, Y+9	; 0x09
    25a2:	fa 85       	ldd	r31, Y+10	; 0x0a
    25a4:	31 97       	sbiw	r30, 0x01	; 1
    25a6:	fe 83       	std	Y+6, r31	; 0x06
    25a8:	ed 83       	std	Y+5, r30	; 0x05
    25aa:	fe 86       	std	Y+14, r15	; 0x0e
    25ac:	ed 86       	std	Y+13, r14	; 0x0d
    25ae:	30 c0       	rjmp	.+96     	; 0x2610 <RoundRectangle+0x286>
		bx = b;
		ay = a;
		
		do
		{
			if (a && (a != b))
    25b0:	00 97       	sbiw	r24, 0x00	; 0
    25b2:	31 f1       	breq	.+76     	; 0x2600 <RoundRectangle+0x276>
    25b4:	80 17       	cp	r24, r16
    25b6:	91 07       	cpc	r25, r17
    25b8:	19 f1       	breq	.+70     	; 0x2600 <RoundRectangle+0x276>
			{
				PutPixel(x1-b, y1-a);
    25ba:	51 01       	movw	r10, r2
    25bc:	2d 85       	ldd	r18, Y+13	; 0x0d
    25be:	3e 85       	ldd	r19, Y+14	; 0x0e
    25c0:	a2 1a       	sub	r10, r18
    25c2:	b3 0a       	sbc	r11, r19
    25c4:	ef 80       	ldd	r14, Y+7	; 0x07
    25c6:	f8 84       	ldd	r15, Y+8	; 0x08
    25c8:	e0 1a       	sub	r14, r16
    25ca:	f1 0a       	sbc	r15, r17
    25cc:	b5 01       	movw	r22, r10
    25ce:	c7 01       	movw	r24, r14
    25d0:	0e 94 0c 20 	call	0x4018	; 0x4018 <LCD_PutPixel>
				PutPixel(x1-b, y2+a);
    25d4:	c9 80       	ldd	r12, Y+1	; 0x01
    25d6:	da 80       	ldd	r13, Y+2	; 0x02
    25d8:	8d 85       	ldd	r24, Y+13	; 0x0d
    25da:	9e 85       	ldd	r25, Y+14	; 0x0e
    25dc:	c8 0e       	add	r12, r24
    25de:	d9 1e       	adc	r13, r25
    25e0:	b6 01       	movw	r22, r12
    25e2:	c7 01       	movw	r24, r14
    25e4:	0e 94 0c 20 	call	0x4018	; 0x4018 <LCD_PutPixel>
				PutPixel(x2+b, y1-a);
    25e8:	e9 84       	ldd	r14, Y+9	; 0x09
    25ea:	fa 84       	ldd	r15, Y+10	; 0x0a
    25ec:	e0 0e       	add	r14, r16
    25ee:	f1 1e       	adc	r15, r17
    25f0:	b5 01       	movw	r22, r10
    25f2:	c7 01       	movw	r24, r14
    25f4:	0e 94 0c 20 	call	0x4018	; 0x4018 <LCD_PutPixel>
				PutPixel(x2+b, y2+a);
    25f8:	b6 01       	movw	r22, r12
    25fa:	c7 01       	movw	r24, r14
    25fc:	0e 94 0c 20 	call	0x4018	; 0x4018 <LCD_PutPixel>
    2600:	ed 85       	ldd	r30, Y+13	; 0x0d
    2602:	fe 85       	ldd	r31, Y+14	; 0x0e
    2604:	31 96       	adiw	r30, 0x01	; 1
    2606:	fe 87       	std	Y+14, r31	; 0x0e
    2608:	ed 87       	std	Y+13, r30	; 0x0d
    260a:	f2 e0       	ldi	r31, 0x02	; 2
    260c:	4f 0e       	add	r4, r31
    260e:	51 1c       	adc	r5, r1
@param x2, y2 - coordinate position of the lower right center
@param rad - defines the radius of the circle
@param fill - fill yes or no
@return none
*/
void RoundRectangle(unsigned int x1, unsigned int y1, unsigned int x2, unsigned int y2, unsigned int radius, unsigned char fill)
    2610:	8d 84       	ldd	r8, Y+13	; 0x0d
    2612:	9e 84       	ldd	r9, Y+14	; 0x0e
    2614:	21 e0       	ldi	r18, 0x01	; 1
    2616:	82 1a       	sub	r8, r18
    2618:	91 08       	sbc	r9, r1
				PutPixel(x1-b, y1-a);
				PutPixel(x1-b, y2+a);
				PutPixel(x2+b, y1-a);
				PutPixel(x2+b, y2+a);
			}
			PutPixel(x1-a, y1-b);
    261a:	61 01       	movw	r12, r2
    261c:	c0 1a       	sub	r12, r16
    261e:	d1 0a       	sbc	r13, r17
@param x2, y2 - coordinate position of the lower right center
@param rad - defines the radius of the circle
@param fill - fill yes or no
@return none
*/
void RoundRectangle(unsigned int x1, unsigned int y1, unsigned int x2, unsigned int y2, unsigned int radius, unsigned char fill)
    2620:	ab 80       	ldd	r10, Y+3	; 0x03
    2622:	bc 80       	ldd	r11, Y+4	; 0x04
    2624:	8d 85       	ldd	r24, Y+13	; 0x0d
    2626:	9e 85       	ldd	r25, Y+14	; 0x0e
    2628:	a8 1a       	sub	r10, r24
    262a:	b9 0a       	sbc	r11, r25
				PutPixel(x1-b, y1-a);
				PutPixel(x1-b, y2+a);
				PutPixel(x2+b, y1-a);
				PutPixel(x2+b, y2+a);
			}
			PutPixel(x1-a, y1-b);
    262c:	b6 01       	movw	r22, r12
    262e:	c5 01       	movw	r24, r10
    2630:	0e 94 0c 20 	call	0x4018	; 0x4018 <LCD_PutPixel>
@param x2, y2 - coordinate position of the lower right center
@param rad - defines the radius of the circle
@param fill - fill yes or no
@return none
*/
void RoundRectangle(unsigned int x1, unsigned int y1, unsigned int x2, unsigned int y2, unsigned int radius, unsigned char fill)
    2634:	ed 80       	ldd	r14, Y+5	; 0x05
    2636:	fe 80       	ldd	r15, Y+6	; 0x06
    2638:	ed 85       	ldd	r30, Y+13	; 0x0d
    263a:	fe 85       	ldd	r31, Y+14	; 0x0e
    263c:	ee 0e       	add	r14, r30
    263e:	ff 1e       	adc	r15, r31
				PutPixel(x1-b, y2+a);
				PutPixel(x2+b, y1-a);
				PutPixel(x2+b, y2+a);
			}
			PutPixel(x1-a, y1-b);
			PutPixel(x2+a, y1-b);
    2640:	b6 01       	movw	r22, r12
    2642:	c7 01       	movw	r24, r14
    2644:	0e 94 0c 20 	call	0x4018	; 0x4018 <LCD_PutPixel>
			PutPixel(x1-a, y2+b);
    2648:	c9 80       	ldd	r12, Y+1	; 0x01
    264a:	da 80       	ldd	r13, Y+2	; 0x02
    264c:	c0 0e       	add	r12, r16
    264e:	d1 1e       	adc	r13, r17
    2650:	b6 01       	movw	r22, r12
    2652:	c5 01       	movw	r24, r10
    2654:	0e 94 0c 20 	call	0x4018	; 0x4018 <LCD_PutPixel>
			PutPixel(x2+a, y2+b);
    2658:	b6 01       	movw	r22, r12
    265a:	c7 01       	movw	r24, r14
    265c:	0e 94 0c 20 	call	0x4018	; 0x4018 <LCD_PutPixel>
			
			if(P < 0)
    2660:	77 20       	and	r7, r7
    2662:	2c f4       	brge	.+10     	; 0x266e <RoundRectangle+0x2e4>
			P+= 3 + 2*a++;
    2664:	64 0c       	add	r6, r4
    2666:	75 1c       	adc	r7, r5
    2668:	8d 85       	ldd	r24, Y+13	; 0x0d
    266a:	9e 85       	ldd	r25, Y+14	; 0x0e
    266c:	0d c0       	rjmp	.+26     	; 0x2688 <RoundRectangle+0x2fe>
			else
			P+= 5 + 2*(a++ - b--);
    266e:	80 1a       	sub	r8, r16
    2670:	91 0a       	sbc	r9, r17
    2672:	88 0c       	add	r8, r8
    2674:	99 1c       	adc	r9, r9
    2676:	f5 e0       	ldi	r31, 0x05	; 5
    2678:	8f 0e       	add	r8, r31
    267a:	91 1c       	adc	r9, r1
    267c:	68 0c       	add	r6, r8
    267e:	79 1c       	adc	r7, r9
    2680:	8d 85       	ldd	r24, Y+13	; 0x0d
    2682:	9e 85       	ldd	r25, Y+14	; 0x0e
    2684:	01 50       	subi	r16, 0x01	; 1
    2686:	11 09       	sbc	r17, r1
		} while(a <= b);
    2688:	08 17       	cp	r16, r24
    268a:	19 07       	cpc	r17, r25
    268c:	0c f0       	brlt	.+2      	; 0x2690 <RoundRectangle+0x306>
    268e:	90 cf       	rjmp	.-224    	; 0x25b0 <RoundRectangle+0x226>
		
		FillRectangle(x1       , y1-radius, x2       , y1-radius);  // top
    2690:	b1 01       	movw	r22, r2
    2692:	2b 85       	ldd	r18, Y+11	; 0x0b
    2694:	3c 85       	ldd	r19, Y+12	; 0x0c
    2696:	62 1b       	sub	r22, r18
    2698:	73 0b       	sbc	r23, r19
    269a:	00 91 6d 00 	lds	r16, 0x006D
    269e:	10 91 6e 00 	lds	r17, 0x006E
    26a2:	9b 01       	movw	r18, r22
    26a4:	49 85       	ldd	r20, Y+9	; 0x09
    26a6:	5a 85       	ldd	r21, Y+10	; 0x0a
    26a8:	8f 81       	ldd	r24, Y+7	; 0x07
    26aa:	98 85       	ldd	r25, Y+8	; 0x08
    26ac:	0e 94 15 20 	call	0x402a	; 0x402a <LCD_Bar>
		FillRectangle(x1       , y2+radius, x2       , y2+radius);  // bottom
    26b0:	6b 85       	ldd	r22, Y+11	; 0x0b
    26b2:	7c 85       	ldd	r23, Y+12	; 0x0c
    26b4:	89 81       	ldd	r24, Y+1	; 0x01
    26b6:	9a 81       	ldd	r25, Y+2	; 0x02
    26b8:	68 0f       	add	r22, r24
    26ba:	79 1f       	adc	r23, r25
    26bc:	00 91 6d 00 	lds	r16, 0x006D
    26c0:	10 91 6e 00 	lds	r17, 0x006E
    26c4:	9b 01       	movw	r18, r22
    26c6:	49 85       	ldd	r20, Y+9	; 0x09
    26c8:	5a 85       	ldd	r21, Y+10	; 0x0a
    26ca:	8f 81       	ldd	r24, Y+7	; 0x07
    26cc:	98 85       	ldd	r25, Y+8	; 0x08
    26ce:	0e 94 15 20 	call	0x402a	; 0x402a <LCD_Bar>
		FillRectangle(x1-radius, y1       , x1-radius, y2       );  // left
    26d2:	8f 81       	ldd	r24, Y+7	; 0x07
    26d4:	98 85       	ldd	r25, Y+8	; 0x08
    26d6:	eb 85       	ldd	r30, Y+11	; 0x0b
    26d8:	fc 85       	ldd	r31, Y+12	; 0x0c
    26da:	8e 1b       	sub	r24, r30
    26dc:	9f 0b       	sbc	r25, r31
    26de:	00 91 6d 00 	lds	r16, 0x006D
    26e2:	10 91 6e 00 	lds	r17, 0x006E
    26e6:	29 81       	ldd	r18, Y+1	; 0x01
    26e8:	3a 81       	ldd	r19, Y+2	; 0x02
    26ea:	ac 01       	movw	r20, r24
    26ec:	b1 01       	movw	r22, r2
    26ee:	0e 94 15 20 	call	0x402a	; 0x402a <LCD_Bar>
		FillRectangle(x2+radius, y1       , x2+radius, y2       );  // right
    26f2:	8b 85       	ldd	r24, Y+11	; 0x0b
    26f4:	9c 85       	ldd	r25, Y+12	; 0x0c
    26f6:	29 85       	ldd	r18, Y+9	; 0x09
    26f8:	3a 85       	ldd	r19, Y+10	; 0x0a
    26fa:	82 0f       	add	r24, r18
    26fc:	93 1f       	adc	r25, r19
    26fe:	00 91 6d 00 	lds	r16, 0x006D
    2702:	10 91 6e 00 	lds	r17, 0x006E
    2706:	29 81       	ldd	r18, Y+1	; 0x01
    2708:	3a 81       	ldd	r19, Y+2	; 0x02
    270a:	ac 01       	movw	r20, r24
    270c:	b1 01       	movw	r22, r2
    270e:	0e 94 15 20 	call	0x402a	; 0x402a <LCD_Bar>
    2712:	05 c0       	rjmp	.+10     	; 0x271e <RoundRectangle+0x394>
			}
			if(P < 0)
			P+= 3 + 2*a++;
			else
			P+= 5 + 2*(a++ - b--);
		} while(a <= b);
    2714:	a8 16       	cp	r10, r24
    2716:	b9 06       	cpc	r11, r25
    2718:	0c f0       	brlt	.+2      	; 0x271c <RoundRectangle+0x392>
    271a:	93 ce       	rjmp	.-730    	; 0x2442 <RoundRectangle+0xb8>
    271c:	07 cf       	rjmp	.-498    	; 0x252c <RoundRectangle+0x1a2>
		FillRectangle(x1       , y1-radius, x2       , y1-radius);  // top
		FillRectangle(x1       , y2+radius, x2       , y2+radius);  // bottom
		FillRectangle(x1-radius, y1       , x1-radius, y2       );  // left
		FillRectangle(x2+radius, y1       , x2+radius, y2       );  // right
	}
}
    271e:	64 96       	adiw	r28, 0x14	; 20
    2720:	0f b6       	in	r0, 0x3f	; 63
    2722:	f8 94       	cli
    2724:	de bf       	out	0x3e, r29	; 62
    2726:	0f be       	out	0x3f, r0	; 63
    2728:	cd bf       	out	0x3d, r28	; 61
    272a:	df 91       	pop	r29
    272c:	cf 91       	pop	r28
    272e:	1f 91       	pop	r17
    2730:	0f 91       	pop	r16
    2732:	ff 90       	pop	r15
    2734:	ef 90       	pop	r14
    2736:	df 90       	pop	r13
    2738:	cf 90       	pop	r12
    273a:	bf 90       	pop	r11
    273c:	af 90       	pop	r10
    273e:	9f 90       	pop	r9
    2740:	8f 90       	pop	r8
    2742:	7f 90       	pop	r7
    2744:	6f 90       	pop	r6
    2746:	5f 90       	pop	r5
    2748:	4f 90       	pop	r4
    274a:	3f 90       	pop	r3
    274c:	2f 90       	pop	r2
    274e:	08 95       	ret

00002750 <Init>:
@brief Init funkcija - Inicijalizacija portova i pinova, omoguavanje prekida, odabir fonta, resetiranje LCD-a, postavljanje UBRR vrijednosti za USART.
*/
void Init() {

	
	GICR |= 1<<INT0;  ///Omoguavanje prekida INT0 
    2750:	8b b7       	in	r24, 0x3b	; 59
    2752:	80 64       	ori	r24, 0x40	; 64
    2754:	8b bf       	out	0x3b, r24	; 59
	MCUCR |= _BV(1) | _BV(3); //Prekid se okida na rastui brid
    2756:	85 b7       	in	r24, 0x35	; 53
    2758:	8a 60       	ori	r24, 0x0A	; 10
    275a:	85 bf       	out	0x35, r24	; 53
	sei(); //Omoguavanje globlanih prekida
    275c:	78 94       	sei

	/// JTAG interface onemoguen; kako bi se izbjegao statiki eliktricitet na TDO pin
	MCUCSR |= _BV(JTD);
    275e:	84 b7       	in	r24, 0x34	; 52
    2760:	80 68       	ori	r24, 0x80	; 128
    2762:	84 bf       	out	0x34, r24	; 52
	MCUCSR |= _BV(JTD);
    2764:	84 b7       	in	r24, 0x34	; 52
    2766:	80 68       	ori	r24, 0x80	; 128
    2768:	84 bf       	out	0x34, r24	; 52

	///Inicijalizacija LCD kontrolnih pinova i MCU I/O pinova
	Orb(LCD_RST_DPRT,LCD_RST_PIN);
    276a:	8f 9a       	sbi	0x11, 7	; 17
	Orb(LCD_RS_DPRT,LCD_RS_PIN);
    276c:	8e 9a       	sbi	0x11, 6	; 17
	Orb(LCD_CS_DPRT,LCD_CS_PIN);
    276e:	8b 9a       	sbi	0x11, 3	; 17
	Orb(LCD_RD_DPRT,LCD_RD_PIN);
    2770:	8c 9a       	sbi	0x11, 4	; 17
	Orb(LCD_WR_DPRT,LCD_WR_PIN);
    2772:	8d 9a       	sbi	0x11, 5	; 17
	
	LCD_Reset();
    2774:	0e 94 be 1e 	call	0x3d7c	; 0x3d7c <LCD_Reset>
	LcdFont(ft18x34); //Uitavanje fonta
    2778:	84 e5       	ldi	r24, 0x54	; 84
    277a:	90 e0       	ldi	r25, 0x00	; 0
    277c:	0e 94 cd 0d 	call	0x1b9a	; 0x1b9a <LcdFont>
	LCD_Clear(BLACK);
    2780:	80 e0       	ldi	r24, 0x00	; 0
    2782:	90 e0       	ldi	r25, 0x00	; 0
    2784:	0e 94 5c 20 	call	0x40b8	; 0x40b8 <LCD_Clear>
    
	UsartInit(51); ///fosc = 8.000MHz, Baud rate 9600bps --> UBRR = 51
    2788:	83 e3       	ldi	r24, 0x33	; 51
    278a:	90 e0       	ldi	r25, 0x00	; 0
    278c:	0e 94 19 21 	call	0x4232	; 0x4232 <UsartInit>
    2790:	08 95       	ret

00002792 <PrintLCD>:
@param *Text - tekst za ispisati
@param align - eljeno poravnanje teksta
@param color - eljena boja teksta
@param scale - mijenjanje veliine, tj. skaliranje fonta
*/
void PrintLCD(uint16_t left, uint16_t top, uint16_t right, uint16_t bottom, char *Text, uint8_t align, uint16_t color, uint8_t scale) {
    2792:	af 92       	push	r10
    2794:	cf 92       	push	r12
    2796:	df 92       	push	r13
    2798:	ef 92       	push	r14
    279a:	0f 93       	push	r16
    279c:	1f 93       	push	r17
	
	SetFgColor(color);
    279e:	d0 92 6c 00 	sts	0x006C, r13
    27a2:	c0 92 6b 00 	sts	0x006B, r12
	FontXScale = scale;
    27a6:	a0 92 68 00 	sts	0x0068, r10
	FontYScale = scale;
    27aa:	a0 92 67 00 	sts	0x0067, r10
	DrawText(left, top, right, bottom, Text, align);
    27ae:	0e 94 2b 10 	call	0x2056	; 0x2056 <DrawText>
	
}
    27b2:	1f 91       	pop	r17
    27b4:	0f 91       	pop	r16
    27b6:	ef 90       	pop	r14
    27b8:	df 90       	pop	r13
    27ba:	cf 90       	pop	r12
    27bc:	af 90       	pop	r10
    27be:	08 95       	ret

000027c0 <ProvjeriTipKartice>:
@brief Funkcija koja vraa tip kartice.
@details Vraa se integer (u RiRead.h u enum kartice su definirane vrijednosti). Popis kartica i duljina svake kartice se nalazi u polju popisKartica takoer definirane u headeru. Vraa se vrijednost 0 ukoliko kartica ne postoji.
@param identifikator - broj znakova koje proitana kartica ima
@return popisKartica - broj kartice
*/
int ProvjeriTipKartice(int identifikator) {
    27c0:	ea ed       	ldi	r30, 0xDA	; 218
    27c2:	f1 e0       	ldi	r31, 0x01	; 1
	
	int i;
	
	for(i = 0; i < sizeOfPopisKartica; i++) {
    27c4:	40 e0       	ldi	r20, 0x00	; 0
    27c6:	50 e0       	ldi	r21, 0x00	; 0
    27c8:	11 c0       	rjmp	.+34     	; 0x27ec <ProvjeriTipKartice+0x2c>
		
		if(i%2 != 0) {
    27ca:	20 ff       	sbrs	r18, 0
    27cc:	0d c0       	rjmp	.+26     	; 0x27e8 <ProvjeriTipKartice+0x28>
			if(popisKartica[i] == identifikator)
    27ce:	60 81       	ld	r22, Z
    27d0:	71 81       	ldd	r23, Z+1	; 0x01
    27d2:	68 17       	cp	r22, r24
    27d4:	79 07       	cpc	r23, r25
    27d6:	41 f4       	brne	.+16     	; 0x27e8 <ProvjeriTipKartice+0x28>
			return popisKartica[i-1];
    27d8:	fa 01       	movw	r30, r20
    27da:	ee 0f       	add	r30, r30
    27dc:	ff 1f       	adc	r31, r31
    27de:	e8 52       	subi	r30, 0x28	; 40
    27e0:	fe 4f       	sbci	r31, 0xFE	; 254
    27e2:	20 81       	ld	r18, Z
    27e4:	31 81       	ldd	r19, Z+1	; 0x01
    27e6:	0a c0       	rjmp	.+20     	; 0x27fc <ProvjeriTipKartice+0x3c>
    27e8:	32 96       	adiw	r30, 0x02	; 2
@brief Funkcija koja vraa tip kartice.
@details Vraa se integer (u RiRead.h u enum kartice su definirane vrijednosti). Popis kartica i duljina svake kartice se nalazi u polju popisKartica takoer definirane u headeru. Vraa se vrijednost 0 ukoliko kartica ne postoji.
@param identifikator - broj znakova koje proitana kartica ima
@return popisKartica - broj kartice
*/
int ProvjeriTipKartice(int identifikator) {
    27ea:	a9 01       	movw	r20, r18
	
	int i;
	
	for(i = 0; i < sizeOfPopisKartica; i++) {
    27ec:	9a 01       	movw	r18, r20
    27ee:	2f 5f       	subi	r18, 0xFF	; 255
    27f0:	3f 4f       	sbci	r19, 0xFF	; 255
    27f2:	28 30       	cpi	r18, 0x08	; 8
    27f4:	31 05       	cpc	r19, r1
    27f6:	49 f7       	brne	.-46     	; 0x27ca <ProvjeriTipKartice+0xa>
			return popisKartica[i-1];
		}
		
	}
	
	return 0;
    27f8:	20 e0       	ldi	r18, 0x00	; 0
    27fa:	30 e0       	ldi	r19, 0x00	; 0
	
}
    27fc:	82 2f       	mov	r24, r18
    27fe:	93 2f       	mov	r25, r19
    2800:	08 95       	ret

00002802 <DohvatiPodatke>:
@brief Funkcija koja parsa string proitan s kartice.
@details Parsani se podaci spremaju u globalnu strukturu.
@param string - string proitan s kartice
@param tipKartice - broj kartice pomou kojeg se odreuje nain parsanja
*/
void DohvatiPodatke(char* string, int tipKartice) {
    2802:	cf 92       	push	r12
    2804:	df 92       	push	r13
    2806:	ef 92       	push	r14
    2808:	ff 92       	push	r15
    280a:	0f 93       	push	r16
    280c:	1f 93       	push	r17
    280e:	cf 93       	push	r28
    2810:	df 93       	push	r29
    2812:	ec 01       	movw	r28, r24
	
	switch(tipKartice) {
    2814:	62 30       	cpi	r22, 0x02	; 2
    2816:	71 05       	cpc	r23, r1
    2818:	09 f4       	brne	.+2      	; 0x281c <DohvatiPodatke+0x1a>
    281a:	41 c0       	rjmp	.+130    	; 0x289e <DohvatiPodatke+0x9c>
    281c:	2c f4       	brge	.+10     	; 0x2828 <DohvatiPodatke+0x26>
    281e:	61 30       	cpi	r22, 0x01	; 1
    2820:	71 05       	cpc	r23, r1
    2822:	09 f0       	breq	.+2      	; 0x2826 <DohvatiPodatke+0x24>
    2824:	38 c1       	rjmp	.+624    	; 0x2a96 <DohvatiPodatke+0x294>
    2826:	09 c0       	rjmp	.+18     	; 0x283a <DohvatiPodatke+0x38>
    2828:	63 30       	cpi	r22, 0x03	; 3
    282a:	71 05       	cpc	r23, r1
    282c:	09 f4       	brne	.+2      	; 0x2830 <DohvatiPodatke+0x2e>
    282e:	72 c0       	rjmp	.+228    	; 0x2914 <DohvatiPodatke+0x112>
    2830:	64 30       	cpi	r22, 0x04	; 4
    2832:	71 05       	cpc	r23, r1
    2834:	09 f0       	breq	.+2      	; 0x2838 <DohvatiPodatke+0x36>
    2836:	2f c1       	rjmp	.+606    	; 0x2a96 <DohvatiPodatke+0x294>
    2838:	d1 c0       	rjmp	.+418    	; 0x29dc <DohvatiPodatke+0x1da>
		
		case XICA:
		
		korisnik.ime = VratiOdNtePojaveDelimiteraDoDelimitera(string, "/", 1, " ");
    283a:	20 ec       	ldi	r18, 0xC0	; 192
    283c:	30 e0       	ldi	r19, 0x00	; 0
    283e:	41 e0       	ldi	r20, 0x01	; 1
    2840:	50 e0       	ldi	r21, 0x00	; 0
    2842:	6f e6       	ldi	r22, 0x6F	; 111
    2844:	70 e0       	ldi	r23, 0x00	; 0
    2846:	0e 94 6c 20 	call	0x40d8	; 0x40d8 <VratiOdNtePojaveDelimiteraDoDelimitera>
    284a:	90 93 fc 01 	sts	0x01FC, r25
    284e:	80 93 fb 01 	sts	0x01FB, r24
		korisnik.prezime = VratiOdNtePojaveDelimiteraDoDelimitera(string, "^", 1, "/");
    2852:	2f e6       	ldi	r18, 0x6F	; 111
    2854:	30 e0       	ldi	r19, 0x00	; 0
    2856:	41 e0       	ldi	r20, 0x01	; 1
    2858:	50 e0       	ldi	r21, 0x00	; 0
    285a:	61 e7       	ldi	r22, 0x71	; 113
    285c:	70 e0       	ldi	r23, 0x00	; 0
    285e:	ce 01       	movw	r24, r28
    2860:	0e 94 6c 20 	call	0x40d8	; 0x40d8 <VratiOdNtePojaveDelimiteraDoDelimitera>
    2864:	90 93 fe 01 	sts	0x01FE, r25
    2868:	80 93 fd 01 	sts	0x01FD, r24
		korisnik.jmbag = VratiOdPozicijeDoPozicije(string, 11, 20);
    286c:	44 e1       	ldi	r20, 0x14	; 20
    286e:	50 e0       	ldi	r21, 0x00	; 0
    2870:	6b e0       	ldi	r22, 0x0B	; 11
    2872:	70 e0       	ldi	r23, 0x00	; 0
    2874:	ce 01       	movw	r24, r28
    2876:	0e 94 b4 20 	call	0x4168	; 0x4168 <VratiOdPozicijeDoPozicije>
    287a:	90 93 02 02 	sts	0x0202, r25
    287e:	80 93 01 02 	sts	0x0201, r24
		korisnik.jmbg = VratiOdNtePojaveDelimiteraDoDelimitera(string, "^", 2, "?");
    2882:	23 e7       	ldi	r18, 0x73	; 115
    2884:	30 e0       	ldi	r19, 0x00	; 0
    2886:	42 e0       	ldi	r20, 0x02	; 2
    2888:	50 e0       	ldi	r21, 0x00	; 0
    288a:	61 e7       	ldi	r22, 0x71	; 113
    288c:	70 e0       	ldi	r23, 0x00	; 0
    288e:	ce 01       	movw	r24, r28
    2890:	0e 94 6c 20 	call	0x40d8	; 0x40d8 <VratiOdNtePojaveDelimiteraDoDelimitera>
    2894:	90 93 00 02 	sts	0x0200, r25
    2898:	80 93 ff 01 	sts	0x01FF, r24
		
		break;
    289c:	fc c0       	rjmp	.+504    	; 0x2a96 <DohvatiPodatke+0x294>
		
		case HAK:
		
		korisnik.ime = VratiOdNtePojaveDelimiteraDoDelimitera(string, "/", 1, " ");
    289e:	20 ec       	ldi	r18, 0xC0	; 192
    28a0:	30 e0       	ldi	r19, 0x00	; 0
    28a2:	41 e0       	ldi	r20, 0x01	; 1
    28a4:	50 e0       	ldi	r21, 0x00	; 0
    28a6:	6f e6       	ldi	r22, 0x6F	; 111
    28a8:	70 e0       	ldi	r23, 0x00	; 0
    28aa:	0e 94 6c 20 	call	0x40d8	; 0x40d8 <VratiOdNtePojaveDelimiteraDoDelimitera>
    28ae:	90 93 fc 01 	sts	0x01FC, r25
    28b2:	80 93 fb 01 	sts	0x01FB, r24
		korisnik.prezime = VratiOdNtePojaveDelimiteraDoDelimitera(string, "^", 1, "/");
    28b6:	2f e6       	ldi	r18, 0x6F	; 111
    28b8:	30 e0       	ldi	r19, 0x00	; 0
    28ba:	41 e0       	ldi	r20, 0x01	; 1
    28bc:	50 e0       	ldi	r21, 0x00	; 0
    28be:	61 e7       	ldi	r22, 0x71	; 113
    28c0:	70 e0       	ldi	r23, 0x00	; 0
    28c2:	ce 01       	movw	r24, r28
    28c4:	0e 94 6c 20 	call	0x40d8	; 0x40d8 <VratiOdNtePojaveDelimiteraDoDelimitera>
    28c8:	90 93 fe 01 	sts	0x01FE, r25
    28cc:	80 93 fd 01 	sts	0x01FD, r24
		korisnik.brojAutokluba = VratiOdPozicijeDoPozicije(string, 3, 10);
    28d0:	4a e0       	ldi	r20, 0x0A	; 10
    28d2:	50 e0       	ldi	r21, 0x00	; 0
    28d4:	63 e0       	ldi	r22, 0x03	; 3
    28d6:	70 e0       	ldi	r23, 0x00	; 0
    28d8:	ce 01       	movw	r24, r28
    28da:	0e 94 b4 20 	call	0x4168	; 0x4168 <VratiOdPozicijeDoPozicije>
    28de:	90 93 06 02 	sts	0x0206, r25
    28e2:	80 93 05 02 	sts	0x0205, r24
		korisnik.clanskiBroj = VratiOdPozicijeDoPozicije(string, 11, 19);
    28e6:	43 e1       	ldi	r20, 0x13	; 19
    28e8:	50 e0       	ldi	r21, 0x00	; 0
    28ea:	6b e0       	ldi	r22, 0x0B	; 11
    28ec:	70 e0       	ldi	r23, 0x00	; 0
    28ee:	ce 01       	movw	r24, r28
    28f0:	0e 94 b4 20 	call	0x4168	; 0x4168 <VratiOdPozicijeDoPozicije>
    28f4:	90 93 04 02 	sts	0x0204, r25
    28f8:	80 93 03 02 	sts	0x0203, r24
		korisnik.datumIsteka = VratiOdPozicijeDoPozicije(string, 56, 63);
    28fc:	4f e3       	ldi	r20, 0x3F	; 63
    28fe:	50 e0       	ldi	r21, 0x00	; 0
    2900:	68 e3       	ldi	r22, 0x38	; 56
    2902:	70 e0       	ldi	r23, 0x00	; 0
    2904:	ce 01       	movw	r24, r28
    2906:	0e 94 b4 20 	call	0x4168	; 0x4168 <VratiOdPozicijeDoPozicije>
    290a:	90 93 08 02 	sts	0x0208, r25
    290e:	80 93 07 02 	sts	0x0207, r24
		
		//korisnik.datumIsteka = FormatirajDatumIstekaHak(korisnik.datumIsteka);
		
		break;
    2912:	c1 c0       	rjmp	.+386    	; 0x2a96 <DohvatiPodatke+0x294>
		
		case OBVEZNO:
		
		korisnik.ime = VratiOdNtePojaveDelimiteraDoDelimitera(string, ")", 2, ")");
    2914:	25 e7       	ldi	r18, 0x75	; 117
    2916:	30 e0       	ldi	r19, 0x00	; 0
    2918:	42 e0       	ldi	r20, 0x02	; 2
    291a:	50 e0       	ldi	r21, 0x00	; 0
    291c:	b9 01       	movw	r22, r18
    291e:	0e 94 6c 20 	call	0x40d8	; 0x40d8 <VratiOdNtePojaveDelimiteraDoDelimitera>
    2922:	0f 2e       	mov	r0, r31
    2924:	fb ef       	ldi	r31, 0xFB	; 251
    2926:	cf 2e       	mov	r12, r31
    2928:	f1 e0       	ldi	r31, 0x01	; 1
    292a:	df 2e       	mov	r13, r31
    292c:	f0 2d       	mov	r31, r0
    292e:	f6 01       	movw	r30, r12
    2930:	91 83       	std	Z+1, r25	; 0x01
    2932:	80 83       	st	Z, r24
		korisnik.prezime = VratiOdNtePojaveDelimiteraDoDelimitera(string, ")", 3, ")");
    2934:	25 e7       	ldi	r18, 0x75	; 117
    2936:	30 e0       	ldi	r19, 0x00	; 0
    2938:	43 e0       	ldi	r20, 0x03	; 3
    293a:	50 e0       	ldi	r21, 0x00	; 0
    293c:	b9 01       	movw	r22, r18
    293e:	ce 01       	movw	r24, r28
    2940:	0e 94 6c 20 	call	0x40d8	; 0x40d8 <VratiOdNtePojaveDelimiteraDoDelimitera>
    2944:	0f 2e       	mov	r0, r31
    2946:	fd ef       	ldi	r31, 0xFD	; 253
    2948:	ef 2e       	mov	r14, r31
    294a:	f1 e0       	ldi	r31, 0x01	; 1
    294c:	ff 2e       	mov	r15, r31
    294e:	f0 2d       	mov	r31, r0
    2950:	f7 01       	movw	r30, r14
    2952:	91 83       	std	Z+1, r25	; 0x01
    2954:	80 83       	st	Z, r24
		//korisnik.postanskiBroj = VratiOdNtePojaveDelimiteraDoDelimitera(string, ")", 4, ")");
		korisnik.ulica = VratiOdNtePojaveDelimiteraDoDelimitera(string, ")", 5, " ");
    2956:	20 ec       	ldi	r18, 0xC0	; 192
    2958:	30 e0       	ldi	r19, 0x00	; 0
    295a:	45 e0       	ldi	r20, 0x05	; 5
    295c:	50 e0       	ldi	r21, 0x00	; 0
    295e:	65 e7       	ldi	r22, 0x75	; 117
    2960:	70 e0       	ldi	r23, 0x00	; 0
    2962:	ce 01       	movw	r24, r28
    2964:	0e 94 6c 20 	call	0x40d8	; 0x40d8 <VratiOdNtePojaveDelimiteraDoDelimitera>
    2968:	0b e0       	ldi	r16, 0x0B	; 11
    296a:	12 e0       	ldi	r17, 0x02	; 2
    296c:	f8 01       	movw	r30, r16
    296e:	91 83       	std	Z+1, r25	; 0x01
    2970:	80 83       	st	Z, r24
		korisnik.kucniBroj = VratiOdNtePojaveDelimiteraDoDelimitera(string, ")", 6, ")");
    2972:	25 e7       	ldi	r18, 0x75	; 117
    2974:	30 e0       	ldi	r19, 0x00	; 0
    2976:	46 e0       	ldi	r20, 0x06	; 6
    2978:	50 e0       	ldi	r21, 0x00	; 0
    297a:	b9 01       	movw	r22, r18
    297c:	ce 01       	movw	r24, r28
    297e:	0e 94 6c 20 	call	0x40d8	; 0x40d8 <VratiOdNtePojaveDelimiteraDoDelimitera>
    2982:	90 93 0e 02 	sts	0x020E, r25
    2986:	80 93 0d 02 	sts	0x020D, r24
		//korisnik.mbo = VratiOdNtePojaveDelimiteraDoDelimitera(string, ";", 1, "=");
		korisnik.oib = VratiOdNtePojaveDelimiteraDoDelimitera(string, "=", 1, "=");
    298a:	27 e7       	ldi	r18, 0x77	; 119
    298c:	30 e0       	ldi	r19, 0x00	; 0
    298e:	41 e0       	ldi	r20, 0x01	; 1
    2990:	50 e0       	ldi	r21, 0x00	; 0
    2992:	b9 01       	movw	r22, r18
    2994:	ce 01       	movw	r24, r28
    2996:	0e 94 6c 20 	call	0x40d8	; 0x40d8 <VratiOdNtePojaveDelimiteraDoDelimitera>
    299a:	90 93 12 02 	sts	0x0212, r25
    299e:	80 93 11 02 	sts	0x0211, r24
		korisnik.datumRodenja = VratiOdNtePojaveDelimiteraDoDelimitera(string, "%", 1, ")");
    29a2:	25 e7       	ldi	r18, 0x75	; 117
    29a4:	30 e0       	ldi	r19, 0x00	; 0
    29a6:	41 e0       	ldi	r20, 0x01	; 1
    29a8:	50 e0       	ldi	r21, 0x00	; 0
    29aa:	69 e7       	ldi	r22, 0x79	; 121
    29ac:	70 e0       	ldi	r23, 0x00	; 0
    29ae:	ce 01       	movw	r24, r28
    29b0:	0e 94 6c 20 	call	0x40d8	; 0x40d8 <VratiOdNtePojaveDelimiteraDoDelimitera>
    29b4:	90 93 1c 02 	sts	0x021C, r25
    29b8:	80 93 1b 02 	sts	0x021B, r24
		
		FormatirajDijakritickeNaZdravstvenoj(korisnik.ime);
    29bc:	f6 01       	movw	r30, r12
    29be:	80 81       	ld	r24, Z
    29c0:	91 81       	ldd	r25, Z+1	; 0x01
    29c2:	0e 94 00 21 	call	0x4200	; 0x4200 <FormatirajDijakritickeNaZdravstvenoj>
		FormatirajDijakritickeNaZdravstvenoj(korisnik.prezime);
    29c6:	f7 01       	movw	r30, r14
    29c8:	80 81       	ld	r24, Z
    29ca:	91 81       	ldd	r25, Z+1	; 0x01
    29cc:	0e 94 00 21 	call	0x4200	; 0x4200 <FormatirajDijakritickeNaZdravstvenoj>
		FormatirajDijakritickeNaZdravstvenoj(korisnik.ulica);
    29d0:	f8 01       	movw	r30, r16
    29d2:	80 81       	ld	r24, Z
    29d4:	91 81       	ldd	r25, Z+1	; 0x01
    29d6:	0e 94 00 21 	call	0x4200	; 0x4200 <FormatirajDijakritickeNaZdravstvenoj>
		
		//korisnik.datumRodenja = FormatirajDatumRodenjaObvezno();
		
		break;
    29da:	5d c0       	rjmp	.+186    	; 0x2a96 <DohvatiPodatke+0x294>
		
		case DOPUNSKO:
		
		korisnik.ime = VratiOdNtePojaveDelimiteraDoDelimitera(string, ")", 1, ")");
    29dc:	25 e7       	ldi	r18, 0x75	; 117
    29de:	30 e0       	ldi	r19, 0x00	; 0
    29e0:	41 e0       	ldi	r20, 0x01	; 1
    29e2:	50 e0       	ldi	r21, 0x00	; 0
    29e4:	b9 01       	movw	r22, r18
    29e6:	0e 94 6c 20 	call	0x40d8	; 0x40d8 <VratiOdNtePojaveDelimiteraDoDelimitera>
    29ea:	0f 2e       	mov	r0, r31
    29ec:	fb ef       	ldi	r31, 0xFB	; 251
    29ee:	ef 2e       	mov	r14, r31
    29f0:	f1 e0       	ldi	r31, 0x01	; 1
    29f2:	ff 2e       	mov	r15, r31
    29f4:	f0 2d       	mov	r31, r0
    29f6:	f7 01       	movw	r30, r14
    29f8:	91 83       	std	Z+1, r25	; 0x01
    29fa:	80 83       	st	Z, r24
		korisnik.prezime = VratiOdNtePojaveDelimiteraDoDelimitera(string, ")", 2, ")");
    29fc:	25 e7       	ldi	r18, 0x75	; 117
    29fe:	30 e0       	ldi	r19, 0x00	; 0
    2a00:	42 e0       	ldi	r20, 0x02	; 2
    2a02:	50 e0       	ldi	r21, 0x00	; 0
    2a04:	b9 01       	movw	r22, r18
    2a06:	ce 01       	movw	r24, r28
    2a08:	0e 94 6c 20 	call	0x40d8	; 0x40d8 <VratiOdNtePojaveDelimiteraDoDelimitera>
    2a0c:	0d ef       	ldi	r16, 0xFD	; 253
    2a0e:	11 e0       	ldi	r17, 0x01	; 1
    2a10:	f8 01       	movw	r30, r16
    2a12:	91 83       	std	Z+1, r25	; 0x01
    2a14:	80 83       	st	Z, r24
		//korisnik.postanskiBroj = VratiOdNtePojaveDelimiteraDoDelimitera(string, ")", 3, ")");
		//korisnik.ulica = VratiOdNtePojaveDelimiteraDoDelimitera(string, ")", 4, " ");
		//korisnik.kucniBroj = VratiOdNtePojaveDelimiteraDoDelimitera(string, ")", 5, ")");
		korisnik.sifraPolice = VratiOdNtePojaveDelimiteraDoDelimitera(string, ")", 6, ")");
    2a16:	25 e7       	ldi	r18, 0x75	; 117
    2a18:	30 e0       	ldi	r19, 0x00	; 0
    2a1a:	46 e0       	ldi	r20, 0x06	; 6
    2a1c:	50 e0       	ldi	r21, 0x00	; 0
    2a1e:	b9 01       	movw	r22, r18
    2a20:	ce 01       	movw	r24, r28
    2a22:	0e 94 6c 20 	call	0x40d8	; 0x40d8 <VratiOdNtePojaveDelimiteraDoDelimitera>
    2a26:	90 93 14 02 	sts	0x0214, r25
    2a2a:	80 93 13 02 	sts	0x0213, r24
		korisnik.vrijediOd = VratiOdNtePojaveDelimiteraDoDelimitera(string, ")", 7, ")");
    2a2e:	25 e7       	ldi	r18, 0x75	; 117
    2a30:	30 e0       	ldi	r19, 0x00	; 0
    2a32:	47 e0       	ldi	r20, 0x07	; 7
    2a34:	50 e0       	ldi	r21, 0x00	; 0
    2a36:	b9 01       	movw	r22, r18
    2a38:	ce 01       	movw	r24, r28
    2a3a:	0e 94 6c 20 	call	0x40d8	; 0x40d8 <VratiOdNtePojaveDelimiteraDoDelimitera>
    2a3e:	90 93 16 02 	sts	0x0216, r25
    2a42:	80 93 15 02 	sts	0x0215, r24
		//korisnik.podrucniUred = VratiOdNtePojaveDelimiteraDoDelimitera(string, ";", 1, "=");
		korisnik.brojIskaznice = VratiOdNtePojaveDelimiteraDoDelimitera(string, "=", 1, "=");
    2a46:	27 e7       	ldi	r18, 0x77	; 119
    2a48:	30 e0       	ldi	r19, 0x00	; 0
    2a4a:	41 e0       	ldi	r20, 0x01	; 1
    2a4c:	50 e0       	ldi	r21, 0x00	; 0
    2a4e:	b9 01       	movw	r22, r18
    2a50:	ce 01       	movw	r24, r28
    2a52:	0e 94 6c 20 	call	0x40d8	; 0x40d8 <VratiOdNtePojaveDelimiteraDoDelimitera>
    2a56:	90 93 1a 02 	sts	0x021A, r25
    2a5a:	80 93 19 02 	sts	0x0219, r24
		//korisnik.mbo = VratiOdNtePojaveDelimiteraDoDelimitera(string, "%", 1, ")");
		korisnik.oib = VratiOdNtePojaveDelimiteraDoDelimitera(string, "=", 2, "=");
    2a5e:	27 e7       	ldi	r18, 0x77	; 119
    2a60:	30 e0       	ldi	r19, 0x00	; 0
    2a62:	42 e0       	ldi	r20, 0x02	; 2
    2a64:	50 e0       	ldi	r21, 0x00	; 0
    2a66:	b9 01       	movw	r22, r18
    2a68:	ce 01       	movw	r24, r28
    2a6a:	0e 94 6c 20 	call	0x40d8	; 0x40d8 <VratiOdNtePojaveDelimiteraDoDelimitera>
    2a6e:	90 93 12 02 	sts	0x0212, r25
    2a72:	80 93 11 02 	sts	0x0211, r24
		
		FormatirajDijakritickeNaZdravstvenoj(korisnik.ime);
    2a76:	f7 01       	movw	r30, r14
    2a78:	80 81       	ld	r24, Z
    2a7a:	91 81       	ldd	r25, Z+1	; 0x01
    2a7c:	0e 94 00 21 	call	0x4200	; 0x4200 <FormatirajDijakritickeNaZdravstvenoj>
		FormatirajDijakritickeNaZdravstvenoj(korisnik.prezime);
    2a80:	f8 01       	movw	r30, r16
    2a82:	80 81       	ld	r24, Z
    2a84:	91 81       	ldd	r25, Z+1	; 0x01
    2a86:	0e 94 00 21 	call	0x4200	; 0x4200 <FormatirajDijakritickeNaZdravstvenoj>
		FormatirajDijakritickeNaZdravstvenoj(korisnik.ulica);
    2a8a:	80 91 0b 02 	lds	r24, 0x020B
    2a8e:	90 91 0c 02 	lds	r25, 0x020C
    2a92:	0e 94 00 21 	call	0x4200	; 0x4200 <FormatirajDijakritickeNaZdravstvenoj>
		
		break;
		
	}
	
}
    2a96:	df 91       	pop	r29
    2a98:	cf 91       	pop	r28
    2a9a:	1f 91       	pop	r17
    2a9c:	0f 91       	pop	r16
    2a9e:	ff 90       	pop	r15
    2aa0:	ef 90       	pop	r14
    2aa2:	df 90       	pop	r13
    2aa4:	cf 90       	pop	r12
    2aa6:	08 95       	ret

00002aa8 <DeklarirajNaNulu>:
/**
@brief Funkcija koja postavlja sve stringove na nulu.
*/
void DeklarirajNaNulu() {
	
	korisnik.ime = NULL;
    2aa8:	10 92 fc 01 	sts	0x01FC, r1
    2aac:	10 92 fb 01 	sts	0x01FB, r1
	korisnik.prezime = NULL;
    2ab0:	10 92 fe 01 	sts	0x01FE, r1
    2ab4:	10 92 fd 01 	sts	0x01FD, r1
	korisnik.brojAutokluba = NULL;
    2ab8:	10 92 06 02 	sts	0x0206, r1
    2abc:	10 92 05 02 	sts	0x0205, r1
	korisnik.brojIskaznice = NULL;
    2ac0:	10 92 1a 02 	sts	0x021A, r1
    2ac4:	10 92 19 02 	sts	0x0219, r1
	korisnik.clanskiBroj = NULL;
    2ac8:	10 92 04 02 	sts	0x0204, r1
    2acc:	10 92 03 02 	sts	0x0203, r1
	korisnik.datumIsteka = NULL;
    2ad0:	10 92 08 02 	sts	0x0208, r1
    2ad4:	10 92 07 02 	sts	0x0207, r1
	korisnik.jmbag = NULL;
    2ad8:	10 92 02 02 	sts	0x0202, r1
    2adc:	10 92 01 02 	sts	0x0201, r1
	korisnik.jmbg = NULL;
    2ae0:	10 92 00 02 	sts	0x0200, r1
    2ae4:	10 92 ff 01 	sts	0x01FF, r1
	korisnik.kucniBroj = NULL;
    2ae8:	10 92 0e 02 	sts	0x020E, r1
    2aec:	10 92 0d 02 	sts	0x020D, r1
	korisnik.mbo = NULL;
    2af0:	10 92 10 02 	sts	0x0210, r1
    2af4:	10 92 0f 02 	sts	0x020F, r1
	korisnik.oib = NULL;
    2af8:	10 92 12 02 	sts	0x0212, r1
    2afc:	10 92 11 02 	sts	0x0211, r1
	korisnik.podrucniUred = NULL;
    2b00:	10 92 18 02 	sts	0x0218, r1
    2b04:	10 92 17 02 	sts	0x0217, r1
	korisnik.postanskiBroj = NULL;
    2b08:	10 92 0a 02 	sts	0x020A, r1
    2b0c:	10 92 09 02 	sts	0x0209, r1
	korisnik.sifraPolice = NULL;
    2b10:	10 92 14 02 	sts	0x0214, r1
    2b14:	10 92 13 02 	sts	0x0213, r1
	korisnik.ulica = NULL;
    2b18:	10 92 0c 02 	sts	0x020C, r1
    2b1c:	10 92 0b 02 	sts	0x020B, r1
	korisnik.vrijediOd = NULL;
    2b20:	10 92 16 02 	sts	0x0216, r1
    2b24:	10 92 15 02 	sts	0x0215, r1
	korisnik.datumRodenja = NULL;
    2b28:	10 92 1c 02 	sts	0x021C, r1
    2b2c:	10 92 1b 02 	sts	0x021B, r1
	korisnik.tipKartice = 0;
    2b30:	10 92 1e 02 	sts	0x021E, r1
    2b34:	10 92 1d 02 	sts	0x021D, r1
    2b38:	08 95       	ret

00002b3a <ShowWelcomeScreen>:
}

/**
@brief Funkcija koja prikazuje zaslon dobrodolice, iscrtava logo, ispisuje naziv aplikacije i autora.
*/
void ShowWelcomeScreen() {
    2b3a:	af 92       	push	r10
    2b3c:	cf 92       	push	r12
    2b3e:	df 92       	push	r13
    2b40:	ef 92       	push	r14
    2b42:	0f 93       	push	r16
    2b44:	1f 93       	push	r17
	//Nacrtaj logo
	RoundRectangle(45,50,190,130,5,0);
    2b46:	e1 2c       	mov	r14, r1
    2b48:	05 e0       	ldi	r16, 0x05	; 5
    2b4a:	10 e0       	ldi	r17, 0x00	; 0
    2b4c:	22 e8       	ldi	r18, 0x82	; 130
    2b4e:	30 e0       	ldi	r19, 0x00	; 0
    2b50:	4e eb       	ldi	r20, 0xBE	; 190
    2b52:	50 e0       	ldi	r21, 0x00	; 0
    2b54:	62 e3       	ldi	r22, 0x32	; 50
    2b56:	70 e0       	ldi	r23, 0x00	; 0
    2b58:	8d e2       	ldi	r24, 0x2D	; 45
    2b5a:	90 e0       	ldi	r25, 0x00	; 0
    2b5c:	0e 94 c5 11 	call	0x238a	; 0x238a <RoundRectangle>
	RoundRectangle(46,51,191,131,5,0);
    2b60:	23 e8       	ldi	r18, 0x83	; 131
    2b62:	30 e0       	ldi	r19, 0x00	; 0
    2b64:	4f eb       	ldi	r20, 0xBF	; 191
    2b66:	50 e0       	ldi	r21, 0x00	; 0
    2b68:	63 e3       	ldi	r22, 0x33	; 51
    2b6a:	70 e0       	ldi	r23, 0x00	; 0
    2b6c:	8e e2       	ldi	r24, 0x2E	; 46
    2b6e:	90 e0       	ldi	r25, 0x00	; 0
    2b70:	0e 94 c5 11 	call	0x238a	; 0x238a <RoundRectangle>
	RoundRectangle(47,52,192,132,5,0);
    2b74:	24 e8       	ldi	r18, 0x84	; 132
    2b76:	30 e0       	ldi	r19, 0x00	; 0
    2b78:	40 ec       	ldi	r20, 0xC0	; 192
    2b7a:	50 e0       	ldi	r21, 0x00	; 0
    2b7c:	64 e3       	ldi	r22, 0x34	; 52
    2b7e:	70 e0       	ldi	r23, 0x00	; 0
    2b80:	8f e2       	ldi	r24, 0x2F	; 47
    2b82:	90 e0       	ldi	r25, 0x00	; 0
    2b84:	0e 94 c5 11 	call	0x238a	; 0x238a <RoundRectangle>
	RoundRectangle(48,53,193,133,5,0);
    2b88:	25 e8       	ldi	r18, 0x85	; 133
    2b8a:	30 e0       	ldi	r19, 0x00	; 0
    2b8c:	41 ec       	ldi	r20, 0xC1	; 193
    2b8e:	50 e0       	ldi	r21, 0x00	; 0
    2b90:	65 e3       	ldi	r22, 0x35	; 53
    2b92:	70 e0       	ldi	r23, 0x00	; 0
    2b94:	80 e3       	ldi	r24, 0x30	; 48
    2b96:	90 e0       	ldi	r25, 0x00	; 0
    2b98:	0e 94 c5 11 	call	0x238a	; 0x238a <RoundRectangle>
	Line(42,62,195,62);
    2b9c:	2e e3       	ldi	r18, 0x3E	; 62
    2b9e:	30 e0       	ldi	r19, 0x00	; 0
    2ba0:	43 ec       	ldi	r20, 0xC3	; 195
    2ba2:	50 e0       	ldi	r21, 0x00	; 0
    2ba4:	6e e3       	ldi	r22, 0x3E	; 62
    2ba6:	70 e0       	ldi	r23, 0x00	; 0
    2ba8:	8a e2       	ldi	r24, 0x2A	; 42
    2baa:	90 e0       	ldi	r25, 0x00	; 0
    2bac:	0e 94 74 10 	call	0x20e8	; 0x20e8 <Line>
	Line(42,63,195,63);
    2bb0:	2f e3       	ldi	r18, 0x3F	; 63
    2bb2:	30 e0       	ldi	r19, 0x00	; 0
    2bb4:	43 ec       	ldi	r20, 0xC3	; 195
    2bb6:	50 e0       	ldi	r21, 0x00	; 0
    2bb8:	6f e3       	ldi	r22, 0x3F	; 63
    2bba:	70 e0       	ldi	r23, 0x00	; 0
    2bbc:	8a e2       	ldi	r24, 0x2A	; 42
    2bbe:	90 e0       	ldi	r25, 0x00	; 0
    2bc0:	0e 94 74 10 	call	0x20e8	; 0x20e8 <Line>
	Line(42,83,195,83);
    2bc4:	23 e5       	ldi	r18, 0x53	; 83
    2bc6:	30 e0       	ldi	r19, 0x00	; 0
    2bc8:	43 ec       	ldi	r20, 0xC3	; 195
    2bca:	50 e0       	ldi	r21, 0x00	; 0
    2bcc:	63 e5       	ldi	r22, 0x53	; 83
    2bce:	70 e0       	ldi	r23, 0x00	; 0
    2bd0:	8a e2       	ldi	r24, 0x2A	; 42
    2bd2:	90 e0       	ldi	r25, 0x00	; 0
    2bd4:	0e 94 74 10 	call	0x20e8	; 0x20e8 <Line>
	Line(42,84,195,84);
    2bd8:	24 e5       	ldi	r18, 0x54	; 84
    2bda:	30 e0       	ldi	r19, 0x00	; 0
    2bdc:	43 ec       	ldi	r20, 0xC3	; 195
    2bde:	50 e0       	ldi	r21, 0x00	; 0
    2be0:	64 e5       	ldi	r22, 0x54	; 84
    2be2:	70 e0       	ldi	r23, 0x00	; 0
    2be4:	8a e2       	ldi	r24, 0x2A	; 42
    2be6:	90 e0       	ldi	r25, 0x00	; 0
    2be8:	0e 94 74 10 	call	0x20e8	; 0x20e8 <Line>
	//Ispii tekst
	PrintLCD(8,305,235,20 ,"RiRead", ALINE_CENTER, LIGHTBLUE, 3);
    2bec:	0f 2e       	mov	r0, r31
    2bee:	f3 e0       	ldi	r31, 0x03	; 3
    2bf0:	af 2e       	mov	r10, r31
    2bf2:	f0 2d       	mov	r31, r0
    2bf4:	0f 2e       	mov	r0, r31
    2bf6:	fd e9       	ldi	r31, 0x9D	; 157
    2bf8:	cf 2e       	mov	r12, r31
    2bfa:	fe ea       	ldi	r31, 0xAE	; 174
    2bfc:	df 2e       	mov	r13, r31
    2bfe:	f0 2d       	mov	r31, r0
    2c00:	ee 24       	eor	r14, r14
    2c02:	e3 94       	inc	r14
    2c04:	0b e7       	ldi	r16, 0x7B	; 123
    2c06:	10 e0       	ldi	r17, 0x00	; 0
    2c08:	24 e1       	ldi	r18, 0x14	; 20
    2c0a:	30 e0       	ldi	r19, 0x00	; 0
    2c0c:	4b ee       	ldi	r20, 0xEB	; 235
    2c0e:	50 e0       	ldi	r21, 0x00	; 0
    2c10:	61 e3       	ldi	r22, 0x31	; 49
    2c12:	71 e0       	ldi	r23, 0x01	; 1
    2c14:	88 e0       	ldi	r24, 0x08	; 8
    2c16:	90 e0       	ldi	r25, 0x00	; 0
    2c18:	0e 94 c9 13 	call	0x2792	; 0x2792 <PrintLCD>
	PrintLCD(5,300,235,300 ,"by BELF", ALINE_CENTER, WHITE, 1);
    2c1c:	aa 24       	eor	r10, r10
    2c1e:	a3 94       	inc	r10
    2c20:	cc 24       	eor	r12, r12
    2c22:	ca 94       	dec	r12
    2c24:	dc 2c       	mov	r13, r12
    2c26:	02 e8       	ldi	r16, 0x82	; 130
    2c28:	10 e0       	ldi	r17, 0x00	; 0
    2c2a:	2c e2       	ldi	r18, 0x2C	; 44
    2c2c:	31 e0       	ldi	r19, 0x01	; 1
    2c2e:	4b ee       	ldi	r20, 0xEB	; 235
    2c30:	50 e0       	ldi	r21, 0x00	; 0
    2c32:	6c e2       	ldi	r22, 0x2C	; 44
    2c34:	71 e0       	ldi	r23, 0x01	; 1
    2c36:	85 e0       	ldi	r24, 0x05	; 5
    2c38:	90 e0       	ldi	r25, 0x00	; 0
    2c3a:	0e 94 c9 13 	call	0x2792	; 0x2792 <PrintLCD>

}
    2c3e:	1f 91       	pop	r17
    2c40:	0f 91       	pop	r16
    2c42:	ef 90       	pop	r14
    2c44:	df 90       	pop	r13
    2c46:	cf 90       	pop	r12
    2c48:	af 90       	pop	r10
    2c4a:	08 95       	ret

00002c4c <LoginXicom>:

/**
@brief Funkcija koja prikazuje zaslon za prijavu.
@return counter - broj znakova proitane kartice
*/
int LoginXicom() {
    2c4c:	af 92       	push	r10
    2c4e:	cf 92       	push	r12
    2c50:	df 92       	push	r13
    2c52:	ef 92       	push	r14
    2c54:	ff 92       	push	r15
    2c56:	0f 93       	push	r16
    2c58:	1f 93       	push	r17
    2c5a:	cf 93       	push	r28
    2c5c:	df 93       	push	r29
	int i=0;
	
	int kontrola=0;
	int counter=0;

	RoundRectangle(5,5,235,315,2,0);
    2c5e:	e1 2c       	mov	r14, r1
    2c60:	02 e0       	ldi	r16, 0x02	; 2
    2c62:	10 e0       	ldi	r17, 0x00	; 0
    2c64:	2b e3       	ldi	r18, 0x3B	; 59
    2c66:	31 e0       	ldi	r19, 0x01	; 1
    2c68:	4b ee       	ldi	r20, 0xEB	; 235
    2c6a:	50 e0       	ldi	r21, 0x00	; 0
    2c6c:	65 e0       	ldi	r22, 0x05	; 5
    2c6e:	70 e0       	ldi	r23, 0x00	; 0
    2c70:	85 e0       	ldi	r24, 0x05	; 5
    2c72:	90 e0       	ldi	r25, 0x00	; 0
    2c74:	0e 94 c5 11 	call	0x238a	; 0x238a <RoundRectangle>
	RoundRectangle(6,6,234,314,2,0);
    2c78:	2a e3       	ldi	r18, 0x3A	; 58
    2c7a:	31 e0       	ldi	r19, 0x01	; 1
    2c7c:	4a ee       	ldi	r20, 0xEA	; 234
    2c7e:	50 e0       	ldi	r21, 0x00	; 0
    2c80:	66 e0       	ldi	r22, 0x06	; 6
    2c82:	70 e0       	ldi	r23, 0x00	; 0
    2c84:	86 e0       	ldi	r24, 0x06	; 6
    2c86:	90 e0       	ldi	r25, 0x00	; 0
    2c88:	0e 94 c5 11 	call	0x238a	; 0x238a <RoundRectangle>
	RoundRectangle(8,8,232,312,2,0);
    2c8c:	28 e3       	ldi	r18, 0x38	; 56
    2c8e:	31 e0       	ldi	r19, 0x01	; 1
    2c90:	48 ee       	ldi	r20, 0xE8	; 232
    2c92:	50 e0       	ldi	r21, 0x00	; 0
    2c94:	68 e0       	ldi	r22, 0x08	; 8
    2c96:	70 e0       	ldi	r23, 0x00	; 0
    2c98:	88 e0       	ldi	r24, 0x08	; 8
    2c9a:	90 e0       	ldi	r25, 0x00	; 0
    2c9c:	0e 94 c5 11 	call	0x238a	; 0x238a <RoundRectangle>
	
	PrintLCD(10,10,234,20 ,"RiRead Login", ALINE_CENTER, LIGHTBLUE, 2);
    2ca0:	68 94       	set
    2ca2:	aa 24       	eor	r10, r10
    2ca4:	a1 f8       	bld	r10, 1
    2ca6:	0f 2e       	mov	r0, r31
    2ca8:	fd e9       	ldi	r31, 0x9D	; 157
    2caa:	cf 2e       	mov	r12, r31
    2cac:	fe ea       	ldi	r31, 0xAE	; 174
    2cae:	df 2e       	mov	r13, r31
    2cb0:	f0 2d       	mov	r31, r0
    2cb2:	ee 24       	eor	r14, r14
    2cb4:	e3 94       	inc	r14
    2cb6:	0a e8       	ldi	r16, 0x8A	; 138
    2cb8:	10 e0       	ldi	r17, 0x00	; 0
    2cba:	24 e1       	ldi	r18, 0x14	; 20
    2cbc:	30 e0       	ldi	r19, 0x00	; 0
    2cbe:	4a ee       	ldi	r20, 0xEA	; 234
    2cc0:	50 e0       	ldi	r21, 0x00	; 0
    2cc2:	6a e0       	ldi	r22, 0x0A	; 10
    2cc4:	70 e0       	ldi	r23, 0x00	; 0
    2cc6:	8a e0       	ldi	r24, 0x0A	; 10
    2cc8:	90 e0       	ldi	r25, 0x00	; 0
    2cca:	0e 94 c9 13 	call	0x2792	; 0x2792 <PrintLCD>
	Line(8,65,232,65);
    2cce:	21 e4       	ldi	r18, 0x41	; 65
    2cd0:	30 e0       	ldi	r19, 0x00	; 0
    2cd2:	48 ee       	ldi	r20, 0xE8	; 232
    2cd4:	50 e0       	ldi	r21, 0x00	; 0
    2cd6:	61 e4       	ldi	r22, 0x41	; 65
    2cd8:	70 e0       	ldi	r23, 0x00	; 0
    2cda:	88 e0       	ldi	r24, 0x08	; 8
    2cdc:	90 e0       	ldi	r25, 0x00	; 0
    2cde:	0e 94 74 10 	call	0x20e8	; 0x20e8 <Line>
	PrintLCD(15,175,232,20 ,"Please,", ALINE_CENTER, WHITE, 2);
    2ce2:	cc 24       	eor	r12, r12
    2ce4:	ca 94       	dec	r12
    2ce6:	dc 2c       	mov	r13, r12
    2ce8:	07 e9       	ldi	r16, 0x97	; 151
    2cea:	10 e0       	ldi	r17, 0x00	; 0
    2cec:	24 e1       	ldi	r18, 0x14	; 20
    2cee:	30 e0       	ldi	r19, 0x00	; 0
    2cf0:	48 ee       	ldi	r20, 0xE8	; 232
    2cf2:	50 e0       	ldi	r21, 0x00	; 0
    2cf4:	6f ea       	ldi	r22, 0xAF	; 175
    2cf6:	70 e0       	ldi	r23, 0x00	; 0
    2cf8:	8f e0       	ldi	r24, 0x0F	; 15
    2cfa:	90 e0       	ldi	r25, 0x00	; 0
    2cfc:	0e 94 c9 13 	call	0x2792	; 0x2792 <PrintLCD>
	PrintLCD(15,250,232,20 ,"swipe your", ALINE_CENTER, WHITE, 2);
    2d00:	0f e9       	ldi	r16, 0x9F	; 159
    2d02:	10 e0       	ldi	r17, 0x00	; 0
    2d04:	24 e1       	ldi	r18, 0x14	; 20
    2d06:	30 e0       	ldi	r19, 0x00	; 0
    2d08:	48 ee       	ldi	r20, 0xE8	; 232
    2d0a:	50 e0       	ldi	r21, 0x00	; 0
    2d0c:	6a ef       	ldi	r22, 0xFA	; 250
    2d0e:	70 e0       	ldi	r23, 0x00	; 0
    2d10:	8f e0       	ldi	r24, 0x0F	; 15
    2d12:	90 e0       	ldi	r25, 0x00	; 0
    2d14:	0e 94 c9 13 	call	0x2792	; 0x2792 <PrintLCD>
	PrintLCD(15,335,232,20 ,"X-ica", ALINE_CENTER, WHITE, 2);
    2d18:	0c ee       	ldi	r16, 0xEC	; 236
    2d1a:	10 e0       	ldi	r17, 0x00	; 0
    2d1c:	24 e1       	ldi	r18, 0x14	; 20
    2d1e:	30 e0       	ldi	r19, 0x00	; 0
    2d20:	48 ee       	ldi	r20, 0xE8	; 232
    2d22:	50 e0       	ldi	r21, 0x00	; 0
    2d24:	6f e4       	ldi	r22, 0x4F	; 79
    2d26:	71 e0       	ldi	r23, 0x01	; 1
    2d28:	8f e0       	ldi	r24, 0x0F	; 15
    2d2a:	90 e0       	ldi	r25, 0x00	; 0
    2d2c:	0e 94 c9 13 	call	0x2792	; 0x2792 <PrintLCD>
	Line(8,260,232,260);
    2d30:	24 e0       	ldi	r18, 0x04	; 4
    2d32:	31 e0       	ldi	r19, 0x01	; 1
    2d34:	48 ee       	ldi	r20, 0xE8	; 232
    2d36:	50 e0       	ldi	r21, 0x00	; 0
    2d38:	64 e0       	ldi	r22, 0x04	; 4
    2d3a:	71 e0       	ldi	r23, 0x01	; 1
    2d3c:	88 e0       	ldi	r24, 0x08	; 8
    2d3e:	90 e0       	ldi	r25, 0x00	; 0
    2d40:	0e 94 74 10 	call	0x20e8	; 0x20e8 <Line>
    2d44:	0f e1       	ldi	r16, 0x1F	; 31
    2d46:	12 e0       	ldi	r17, 0x02	; 2
int LoginXicom() {
	
	int i=0;
	
	int kontrola=0;
	int counter=0;
    2d48:	c0 e0       	ldi	r28, 0x00	; 0
    2d4a:	d0 e0       	ldi	r29, 0x00	; 0
	PrintLCD(15,175,232,20 ,"Please,", ALINE_CENTER, WHITE, 2);
	PrintLCD(15,250,232,20 ,"swipe your", ALINE_CENTER, WHITE, 2);
	PrintLCD(15,335,232,20 ,"X-ica", ALINE_CENTER, WHITE, 2);
	Line(8,260,232,260);
	
	while(kontrola!=1)
    2d4c:	08 c0       	rjmp	.+16     	; 0x2d5e <LoginXicom+0x112>
		counter++;
		
		if(str[i] == 13) // 0x0D (13 decimalno) --> kod za 'CR' (carriage return), predzadnji character svakog zapisa na kartici
		{
			kontrola++;
			str[i+1] = USARTReadChar(); //zadnji character svakog zapisa na kartici je 'LF' (line feed), rijeeno s predzadnji+1
    2d4e:	0e 94 1f 21 	call	0x423e	; 0x423e <USARTReadChar>
    2d52:	c1 5e       	subi	r28, 0xE1	; 225
    2d54:	dd 4f       	sbci	r29, 0xFD	; 253
    2d56:	89 83       	std	Y+1, r24	; 0x01
			break;
		}
		i++;
	}
	
	return counter;
    2d58:	8e 2d       	mov	r24, r14
    2d5a:	9f 2d       	mov	r25, r15
    2d5c:	0d c0       	rjmp	.+26     	; 0x2d78 <LoginXicom+0x12c>
	PrintLCD(15,335,232,20 ,"X-ica", ALINE_CENTER, WHITE, 2);
	Line(8,260,232,260);
	
	while(kontrola!=1)
	{
		str[i]=USARTReadChar();
    2d5e:	0e 94 1f 21 	call	0x423e	; 0x423e <USARTReadChar>
    2d62:	f8 01       	movw	r30, r16
    2d64:	81 93       	st	Z+, r24
    2d66:	8f 01       	movw	r16, r30
		
		counter++;
    2d68:	7e 01       	movw	r14, r28
    2d6a:	ff ef       	ldi	r31, 0xFF	; 255
    2d6c:	ef 1a       	sub	r14, r31
    2d6e:	ff 0a       	sbc	r15, r31
		
		if(str[i] == 13) // 0x0D (13 decimalno) --> kod za 'CR' (carriage return), predzadnji character svakog zapisa na kartici
    2d70:	8d 30       	cpi	r24, 0x0D	; 13
    2d72:	69 f3       	breq	.-38     	; 0x2d4e <LoginXicom+0x102>
	
	while(kontrola!=1)
	{
		str[i]=USARTReadChar();
		
		counter++;
    2d74:	e7 01       	movw	r28, r14
    2d76:	f3 cf       	rjmp	.-26     	; 0x2d5e <LoginXicom+0x112>
		i++;
	}
	
	return counter;
	
}
    2d78:	df 91       	pop	r29
    2d7a:	cf 91       	pop	r28
    2d7c:	1f 91       	pop	r17
    2d7e:	0f 91       	pop	r16
    2d80:	ff 90       	pop	r15
    2d82:	ef 90       	pop	r14
    2d84:	df 90       	pop	r13
    2d86:	cf 90       	pop	r12
    2d88:	af 90       	pop	r10
    2d8a:	08 95       	ret

00002d8c <ShowLoginScreen>:
@brief Funkcija koja provjerava je li provuena X-ica te shodno tome ispisuje status (ERROR || SUCCESS) na Login screenu
@param brojZnakova - broj znakova proitane kartice
@return 1 SUCCESS
@return -1 ERROR
*/
int ShowLoginScreen(int brojZnakova) {
    2d8c:	af 92       	push	r10
    2d8e:	cf 92       	push	r12
    2d90:	df 92       	push	r13
    2d92:	ef 92       	push	r14
    2d94:	0f 93       	push	r16
    2d96:	1f 93       	push	r17
	
	korisnik.tipKartice = ProvjeriTipKartice(brojZnakova);
    2d98:	0e 94 e0 13 	call	0x27c0	; 0x27c0 <ProvjeriTipKartice>
    2d9c:	90 93 1e 02 	sts	0x021E, r25
    2da0:	80 93 1d 02 	sts	0x021D, r24
	
	if(korisnik.tipKartice == XICA) {
    2da4:	01 97       	sbiw	r24, 0x01	; 1
    2da6:	19 f5       	brne	.+70     	; 0x2dee <ShowLoginScreen+0x62>
		
		PrintLCD(10,273,235,260 ,"SUCCESS", ALINE_CENTER, GREEN, 2);
    2da8:	68 94       	set
    2daa:	aa 24       	eor	r10, r10
    2dac:	a1 f8       	bld	r10, 1
    2dae:	0f 2e       	mov	r0, r31
    2db0:	f6 ee       	ldi	r31, 0xE6	; 230
    2db2:	cf 2e       	mov	r12, r31
    2db4:	f7 e3       	ldi	r31, 0x37	; 55
    2db6:	df 2e       	mov	r13, r31
    2db8:	f0 2d       	mov	r31, r0
    2dba:	ee 24       	eor	r14, r14
    2dbc:	e3 94       	inc	r14
    2dbe:	0a ea       	ldi	r16, 0xAA	; 170
    2dc0:	10 e0       	ldi	r17, 0x00	; 0
    2dc2:	24 e0       	ldi	r18, 0x04	; 4
    2dc4:	31 e0       	ldi	r19, 0x01	; 1
    2dc6:	4b ee       	ldi	r20, 0xEB	; 235
    2dc8:	50 e0       	ldi	r21, 0x00	; 0
    2dca:	61 e1       	ldi	r22, 0x11	; 17
    2dcc:	71 e0       	ldi	r23, 0x01	; 1
    2dce:	8a e0       	ldi	r24, 0x0A	; 10
    2dd0:	90 e0       	ldi	r25, 0x00	; 0
    2dd2:	0e 94 c9 13 	call	0x2792	; 0x2792 <PrintLCD>
	#else
		//round up by default
		__ticks_dc = (uint32_t)(ceil(fabs(__tmp)));
	#endif

	__builtin_avr_delay_cycles(__ticks_dc);
    2dd6:	2f ef       	ldi	r18, 0xFF	; 255
    2dd8:	83 ed       	ldi	r24, 0xD3	; 211
    2dda:	90 e3       	ldi	r25, 0x30	; 48
    2ddc:	21 50       	subi	r18, 0x01	; 1
    2dde:	80 40       	sbci	r24, 0x00	; 0
    2de0:	90 40       	sbci	r25, 0x00	; 0
    2de2:	e1 f7       	brne	.-8      	; 0x2ddc <ShowLoginScreen+0x50>
    2de4:	00 c0       	rjmp	.+0      	; 0x2de6 <ShowLoginScreen+0x5a>
    2de6:	00 00       	nop
		_delay_ms(2000);
		
		return 1;
    2de8:	21 e0       	ldi	r18, 0x01	; 1
    2dea:	30 e0       	ldi	r19, 0x00	; 0
    2dec:	21 c0       	rjmp	.+66     	; 0x2e30 <ShowLoginScreen+0xa4>
		
		} else {
		
		PrintLCD(10,273,235,260 ,"ERROR", ALINE_CENTER, RED, 2);
    2dee:	68 94       	set
    2df0:	aa 24       	eor	r10, r10
    2df2:	a1 f8       	bld	r10, 1
    2df4:	0f 2e       	mov	r0, r31
    2df6:	c1 2c       	mov	r12, r1
    2df8:	f8 ef       	ldi	r31, 0xF8	; 248
    2dfa:	df 2e       	mov	r13, r31
    2dfc:	f0 2d       	mov	r31, r0
    2dfe:	ee 24       	eor	r14, r14
    2e00:	e3 94       	inc	r14
    2e02:	02 eb       	ldi	r16, 0xB2	; 178
    2e04:	10 e0       	ldi	r17, 0x00	; 0
    2e06:	24 e0       	ldi	r18, 0x04	; 4
    2e08:	31 e0       	ldi	r19, 0x01	; 1
    2e0a:	4b ee       	ldi	r20, 0xEB	; 235
    2e0c:	50 e0       	ldi	r21, 0x00	; 0
    2e0e:	61 e1       	ldi	r22, 0x11	; 17
    2e10:	71 e0       	ldi	r23, 0x01	; 1
    2e12:	8a e0       	ldi	r24, 0x0A	; 10
    2e14:	90 e0       	ldi	r25, 0x00	; 0
    2e16:	0e 94 c9 13 	call	0x2792	; 0x2792 <PrintLCD>
    2e1a:	2f ef       	ldi	r18, 0xFF	; 255
    2e1c:	83 ed       	ldi	r24, 0xD3	; 211
    2e1e:	90 e3       	ldi	r25, 0x30	; 48
    2e20:	21 50       	subi	r18, 0x01	; 1
    2e22:	80 40       	sbci	r24, 0x00	; 0
    2e24:	90 40       	sbci	r25, 0x00	; 0
    2e26:	e1 f7       	brne	.-8      	; 0x2e20 <ShowLoginScreen+0x94>
    2e28:	00 c0       	rjmp	.+0      	; 0x2e2a <ShowLoginScreen+0x9e>
    2e2a:	00 00       	nop
		_delay_ms(2000);
		
		return -1;
    2e2c:	2f ef       	ldi	r18, 0xFF	; 255
    2e2e:	3f ef       	ldi	r19, 0xFF	; 255
		
	}
	
}
    2e30:	82 2f       	mov	r24, r18
    2e32:	93 2f       	mov	r25, r19
    2e34:	1f 91       	pop	r17
    2e36:	0f 91       	pop	r16
    2e38:	ef 90       	pop	r14
    2e3a:	df 90       	pop	r13
    2e3c:	cf 90       	pop	r12
    2e3e:	af 90       	pop	r10
    2e40:	08 95       	ret

00002e42 <InfoSwipe>:

/**
@brief Funkcija koja ita jednu od podranih kartica na ShowCard screenu.
@return 0 - SUCCESS
*/
int InfoSwipe(){
    2e42:	ef 92       	push	r14
    2e44:	ff 92       	push	r15
    2e46:	0f 93       	push	r16
    2e48:	1f 93       	push	r17
    2e4a:	cf 93       	push	r28
    2e4c:	df 93       	push	r29
	
	DeklarirajNaNulu();
    2e4e:	0e 94 54 15 	call	0x2aa8	; 0x2aa8 <DeklarirajNaNulu>
    2e52:	0f e1       	ldi	r16, 0x1F	; 31
    2e54:	12 e0       	ldi	r17, 0x02	; 2
	int kontrola = 0, i = 0;
	int counter = 0;
    2e56:	c0 e0       	ldi	r28, 0x00	; 0
    2e58:	d0 e0       	ldi	r29, 0x00	; 0
	
	while(kontrola!=1)
	{
		str[i]=USARTReadChar();
    2e5a:	0e 94 1f 21 	call	0x423e	; 0x423e <USARTReadChar>
    2e5e:	f8 01       	movw	r30, r16
    2e60:	81 93       	st	Z+, r24
    2e62:	8f 01       	movw	r16, r30
		
		counter++;
    2e64:	7e 01       	movw	r14, r28
    2e66:	ff ef       	ldi	r31, 0xFF	; 255
    2e68:	ef 1a       	sub	r14, r31
    2e6a:	ff 0a       	sbc	r15, r31
		
		if(str[i] == 13) // 0x0D (13 decimalno) --> kod za 'CR' (carriage return), predzadnji character svakog zapisa na kartici 
    2e6c:	8d 30       	cpi	r24, 0x0D	; 13
    2e6e:	11 f0       	breq	.+4      	; 0x2e74 <InfoSwipe+0x32>
	
	while(kontrola!=1)
	{
		str[i]=USARTReadChar();
		
		counter++;
    2e70:	e7 01       	movw	r28, r14
    2e72:	f3 cf       	rjmp	.-26     	; 0x2e5a <InfoSwipe+0x18>
		
		if(str[i] == 13) // 0x0D (13 decimalno) --> kod za 'CR' (carriage return), predzadnji character svakog zapisa na kartici 
		{
			kontrola++;
			str[i+1] = USARTReadChar(); //zadnji character svakog zapisa na kartici je 'LF' (line feed), rijeeno s predzadnji+1
    2e74:	0e 94 1f 21 	call	0x423e	; 0x423e <USARTReadChar>
    2e78:	c1 5e       	subi	r28, 0xE1	; 225
    2e7a:	dd 4f       	sbci	r29, 0xFD	; 253
    2e7c:	89 83       	std	Y+1, r24	; 0x01
			break;
		}
		i++;
	}
	
	brojKartice = ProvjeriTipKartice(counter);
    2e7e:	c7 01       	movw	r24, r14
    2e80:	0e 94 e0 13 	call	0x27c0	; 0x27c0 <ProvjeriTipKartice>
    2e84:	90 93 f8 01 	sts	0x01F8, r25
    2e88:	80 93 f7 01 	sts	0x01F7, r24
	
	DohvatiPodatke(str, brojKartice);
    2e8c:	bc 01       	movw	r22, r24
    2e8e:	8f e1       	ldi	r24, 0x1F	; 31
    2e90:	92 e0       	ldi	r25, 0x02	; 2
    2e92:	0e 94 01 14 	call	0x2802	; 0x2802 <DohvatiPodatke>

	brojChara=counter;
    2e96:	f0 92 e8 02 	sts	0x02E8, r15
    2e9a:	e0 92 e7 02 	sts	0x02E7, r14
	return 0;
}
    2e9e:	80 e0       	ldi	r24, 0x00	; 0
    2ea0:	90 e0       	ldi	r25, 0x00	; 0
    2ea2:	df 91       	pop	r29
    2ea4:	cf 91       	pop	r28
    2ea6:	1f 91       	pop	r17
    2ea8:	0f 91       	pop	r16
    2eaa:	ff 90       	pop	r15
    2eac:	ef 90       	pop	r14
    2eae:	08 95       	ret

00002eb0 <ShowCardScreen>:
}

/**
@brief Funkcija koja prikazuje 'Card screen' zaslon nakon uspjene prijave X-icom, ispisuje pozdravnu poruku prijavljenom korisniku, njegovu privilegiju te menu podranih kartica.
*/
void ShowCardScreen(){
    2eb0:	af 92       	push	r10
    2eb2:	cf 92       	push	r12
    2eb4:	df 92       	push	r13
    2eb6:	ef 92       	push	r14
    2eb8:	0f 93       	push	r16
    2eba:	1f 93       	push	r17
    2ebc:	cf 93       	push	r28
    2ebe:	df 93       	push	r29
    2ec0:	cd b7       	in	r28, 0x3d	; 61
    2ec2:	de b7       	in	r29, 0x3e	; 62
    2ec4:	64 97       	sbiw	r28, 0x14	; 20
    2ec6:	0f b6       	in	r0, 0x3f	; 63
    2ec8:	f8 94       	cli
    2eca:	de bf       	out	0x3e, r29	; 62
    2ecc:	0f be       	out	0x3f, r0	; 63
    2ece:	cd bf       	out	0x3d, r28	; 61
	//Nacrtaj obrub
	RoundRectangle(5,5,235,315,2,0);
    2ed0:	e1 2c       	mov	r14, r1
    2ed2:	02 e0       	ldi	r16, 0x02	; 2
    2ed4:	10 e0       	ldi	r17, 0x00	; 0
    2ed6:	2b e3       	ldi	r18, 0x3B	; 59
    2ed8:	31 e0       	ldi	r19, 0x01	; 1
    2eda:	4b ee       	ldi	r20, 0xEB	; 235
    2edc:	50 e0       	ldi	r21, 0x00	; 0
    2ede:	65 e0       	ldi	r22, 0x05	; 5
    2ee0:	70 e0       	ldi	r23, 0x00	; 0
    2ee2:	85 e0       	ldi	r24, 0x05	; 5
    2ee4:	90 e0       	ldi	r25, 0x00	; 0
    2ee6:	0e 94 c5 11 	call	0x238a	; 0x238a <RoundRectangle>
	RoundRectangle(6,6,234,314,2,0);
    2eea:	2a e3       	ldi	r18, 0x3A	; 58
    2eec:	31 e0       	ldi	r19, 0x01	; 1
    2eee:	4a ee       	ldi	r20, 0xEA	; 234
    2ef0:	50 e0       	ldi	r21, 0x00	; 0
    2ef2:	66 e0       	ldi	r22, 0x06	; 6
    2ef4:	70 e0       	ldi	r23, 0x00	; 0
    2ef6:	86 e0       	ldi	r24, 0x06	; 6
    2ef8:	90 e0       	ldi	r25, 0x00	; 0
    2efa:	0e 94 c5 11 	call	0x238a	; 0x238a <RoundRectangle>
	RoundRectangle(8,8,232,312,2,0);
    2efe:	28 e3       	ldi	r18, 0x38	; 56
    2f00:	31 e0       	ldi	r19, 0x01	; 1
    2f02:	48 ee       	ldi	r20, 0xE8	; 232
    2f04:	50 e0       	ldi	r21, 0x00	; 0
    2f06:	68 e0       	ldi	r22, 0x08	; 8
    2f08:	70 e0       	ldi	r23, 0x00	; 0
    2f0a:	88 e0       	ldi	r24, 0x08	; 8
    2f0c:	90 e0       	ldi	r25, 0x00	; 0
    2f0e:	0e 94 c5 11 	call	0x238a	; 0x238a <RoundRectangle>
	
	char text[20];

	strcpy(text, "Welcome, ");
    2f12:	8a e0       	ldi	r24, 0x0A	; 10
    2f14:	e8 eb       	ldi	r30, 0xB8	; 184
    2f16:	f0 e0       	ldi	r31, 0x00	; 0
    2f18:	8e 01       	movw	r16, r28
    2f1a:	0f 5f       	subi	r16, 0xFF	; 255
    2f1c:	1f 4f       	sbci	r17, 0xFF	; 255
    2f1e:	d8 01       	movw	r26, r16
    2f20:	01 90       	ld	r0, Z+
    2f22:	0d 92       	st	X+, r0
    2f24:	8a 95       	dec	r24
    2f26:	e1 f7       	brne	.-8      	; 0x2f20 <ShowCardScreen+0x70>
	strcat(text, korisnik.ime);
    2f28:	60 91 fb 01 	lds	r22, 0x01FB
    2f2c:	70 91 fc 01 	lds	r23, 0x01FC
    2f30:	c8 01       	movw	r24, r16
    2f32:	0e 94 60 22 	call	0x44c0	; 0x44c0 <strcat>
	strcat(text, ".");
    2f36:	f8 01       	movw	r30, r16
    2f38:	01 90       	ld	r0, Z+
    2f3a:	00 20       	and	r0, r0
    2f3c:	e9 f7       	brne	.-6      	; 0x2f38 <ShowCardScreen+0x88>
    2f3e:	31 97       	sbiw	r30, 0x01	; 1
    2f40:	8e e2       	ldi	r24, 0x2E	; 46
    2f42:	90 e0       	ldi	r25, 0x00	; 0
    2f44:	91 83       	std	Z+1, r25	; 0x01
    2f46:	80 83       	st	Z, r24
	
	PrintLCD(25,25,235,22 ,text, ALINE_LEFT, WHITE, 1);
    2f48:	aa 24       	eor	r10, r10
    2f4a:	a3 94       	inc	r10
    2f4c:	cc 24       	eor	r12, r12
    2f4e:	ca 94       	dec	r12
    2f50:	dc 2c       	mov	r13, r12
    2f52:	26 e1       	ldi	r18, 0x16	; 22
    2f54:	30 e0       	ldi	r19, 0x00	; 0
    2f56:	4b ee       	ldi	r20, 0xEB	; 235
    2f58:	50 e0       	ldi	r21, 0x00	; 0
    2f5a:	69 e1       	ldi	r22, 0x19	; 25
    2f5c:	70 e0       	ldi	r23, 0x00	; 0
    2f5e:	89 e1       	ldi	r24, 0x19	; 25
    2f60:	90 e0       	ldi	r25, 0x00	; 0
    2f62:	0e 94 c9 13 	call	0x2792	; 0x2792 <PrintLCD>

	if(strcmp(korisnik.jmbag, admin) == 0) {
    2f66:	00 91 01 02 	lds	r16, 0x0201
    2f6a:	10 91 02 02 	lds	r17, 0x0202
    2f6e:	6d ec       	ldi	r22, 0xCD	; 205
    2f70:	71 e0       	ldi	r23, 0x01	; 1
    2f72:	c8 01       	movw	r24, r16
    2f74:	0e 94 6b 22 	call	0x44d6	; 0x44d6 <strcmp>
    2f78:	28 2f       	mov	r18, r24
    2f7a:	39 2f       	mov	r19, r25
    2f7c:	23 2b       	or	r18, r19
    2f7e:	81 f4       	brne	.+32     	; 0x2fa0 <ShowCardScreen+0xf0>
		strcpy(text, "ADMIN");
    2f80:	86 e0       	ldi	r24, 0x06	; 6
    2f82:	e2 ec       	ldi	r30, 0xC2	; 194
    2f84:	f0 e0       	ldi	r31, 0x00	; 0
    2f86:	de 01       	movw	r26, r28
    2f88:	11 96       	adiw	r26, 0x01	; 1
    2f8a:	01 90       	ld	r0, Z+
    2f8c:	0d 92       	st	X+, r0
    2f8e:	8a 95       	dec	r24
    2f90:	e1 f7       	brne	.-8      	; 0x2f8a <ShowCardScreen+0xda>
		privilegije = ADMIN;
    2f92:	81 e0       	ldi	r24, 0x01	; 1
    2f94:	90 e0       	ldi	r25, 0x00	; 0
    2f96:	90 93 fa 01 	sts	0x01FA, r25
    2f9a:	80 93 f9 01 	sts	0x01F9, r24
    2f9e:	28 c0       	rjmp	.+80     	; 0x2ff0 <ShowCardScreen+0x140>
		} else if(strcmp(korisnik.jmbag, moderator) == 0) {
    2fa0:	62 ec       	ldi	r22, 0xC2	; 194
    2fa2:	71 e0       	ldi	r23, 0x01	; 1
    2fa4:	c8 01       	movw	r24, r16
    2fa6:	0e 94 6b 22 	call	0x44d6	; 0x44d6 <strcmp>
    2faa:	28 2f       	mov	r18, r24
    2fac:	39 2f       	mov	r19, r25
    2fae:	23 2b       	or	r18, r19
    2fb0:	81 f4       	brne	.+32     	; 0x2fd2 <ShowCardScreen+0x122>
		strcpy(text, "MODERATOR");
    2fb2:	8a e0       	ldi	r24, 0x0A	; 10
    2fb4:	e8 ec       	ldi	r30, 0xC8	; 200
    2fb6:	f0 e0       	ldi	r31, 0x00	; 0
    2fb8:	de 01       	movw	r26, r28
    2fba:	11 96       	adiw	r26, 0x01	; 1
    2fbc:	01 90       	ld	r0, Z+
    2fbe:	0d 92       	st	X+, r0
    2fc0:	8a 95       	dec	r24
    2fc2:	e1 f7       	brne	.-8      	; 0x2fbc <ShowCardScreen+0x10c>
		privilegije = MODERATOR;
    2fc4:	82 e0       	ldi	r24, 0x02	; 2
    2fc6:	90 e0       	ldi	r25, 0x00	; 0
    2fc8:	90 93 fa 01 	sts	0x01FA, r25
    2fcc:	80 93 f9 01 	sts	0x01F9, r24
    2fd0:	0f c0       	rjmp	.+30     	; 0x2ff0 <ShowCardScreen+0x140>
		} else {
		privilegije = GUEST;
    2fd2:	83 e0       	ldi	r24, 0x03	; 3
    2fd4:	90 e0       	ldi	r25, 0x00	; 0
    2fd6:	90 93 fa 01 	sts	0x01FA, r25
    2fda:	80 93 f9 01 	sts	0x01F9, r24
		strcpy(text, "GUEST");
    2fde:	86 e0       	ldi	r24, 0x06	; 6
    2fe0:	e2 ed       	ldi	r30, 0xD2	; 210
    2fe2:	f0 e0       	ldi	r31, 0x00	; 0
    2fe4:	de 01       	movw	r26, r28
    2fe6:	11 96       	adiw	r26, 0x01	; 1
    2fe8:	01 90       	ld	r0, Z+
    2fea:	0d 92       	st	X+, r0
    2fec:	8a 95       	dec	r24
    2fee:	e1 f7       	brne	.-8      	; 0x2fe8 <ShowCardScreen+0x138>
	}
	
	
	PrintLCD(25,50,235,39 ,text, ALINE_LEFT, LIGHTORANGE, 1);
    2ff0:	aa 24       	eor	r10, r10
    2ff2:	a3 94       	inc	r10
    2ff4:	0f 2e       	mov	r0, r31
    2ff6:	f4 e1       	ldi	r31, 0x14	; 20
    2ff8:	cf 2e       	mov	r12, r31
    2ffa:	fe ef       	ldi	r31, 0xFE	; 254
    2ffc:	df 2e       	mov	r13, r31
    2ffe:	f0 2d       	mov	r31, r0
    3000:	e1 2c       	mov	r14, r1
    3002:	8e 01       	movw	r16, r28
    3004:	0f 5f       	subi	r16, 0xFF	; 255
    3006:	1f 4f       	sbci	r17, 0xFF	; 255
    3008:	27 e2       	ldi	r18, 0x27	; 39
    300a:	30 e0       	ldi	r19, 0x00	; 0
    300c:	4b ee       	ldi	r20, 0xEB	; 235
    300e:	50 e0       	ldi	r21, 0x00	; 0
    3010:	62 e3       	ldi	r22, 0x32	; 50
    3012:	70 e0       	ldi	r23, 0x00	; 0
    3014:	89 e1       	ldi	r24, 0x19	; 25
    3016:	90 e0       	ldi	r25, 0x00	; 0
    3018:	0e 94 c9 13 	call	0x2792	; 0x2792 <PrintLCD>
	//PrintLCD(50,50,220,39, "LOGOUT", ALINE_RIGHT, LIGHTBLUE,1);
	Line(8,65,232,65);
    301c:	21 e4       	ldi	r18, 0x41	; 65
    301e:	30 e0       	ldi	r19, 0x00	; 0
    3020:	48 ee       	ldi	r20, 0xE8	; 232
    3022:	50 e0       	ldi	r21, 0x00	; 0
    3024:	61 e4       	ldi	r22, 0x41	; 65
    3026:	70 e0       	ldi	r23, 0x00	; 0
    3028:	88 e0       	ldi	r24, 0x08	; 8
    302a:	90 e0       	ldi	r25, 0x00	; 0
    302c:	0e 94 74 10 	call	0x20e8	; 0x20e8 <Line>
	//Menu podranih kartica
	PrintLCD(30,80,235,105 ,"PODRZANE KARTICE", ALINE_LEFT, WHITE, 1);
    3030:	cc 24       	eor	r12, r12
    3032:	ca 94       	dec	r12
    3034:	dc 2c       	mov	r13, r12
    3036:	08 ed       	ldi	r16, 0xD8	; 216
    3038:	10 e0       	ldi	r17, 0x00	; 0
    303a:	29 e6       	ldi	r18, 0x69	; 105
    303c:	30 e0       	ldi	r19, 0x00	; 0
    303e:	4b ee       	ldi	r20, 0xEB	; 235
    3040:	50 e0       	ldi	r21, 0x00	; 0
    3042:	60 e5       	ldi	r22, 0x50	; 80
    3044:	70 e0       	ldi	r23, 0x00	; 0
    3046:	8e e1       	ldi	r24, 0x1E	; 30
    3048:	90 e0       	ldi	r25, 0x00	; 0
    304a:	0e 94 c9 13 	call	0x2792	; 0x2792 <PrintLCD>
	Line(28,105,200,105);
    304e:	29 e6       	ldi	r18, 0x69	; 105
    3050:	30 e0       	ldi	r19, 0x00	; 0
    3052:	48 ec       	ldi	r20, 0xC8	; 200
    3054:	50 e0       	ldi	r21, 0x00	; 0
    3056:	69 e6       	ldi	r22, 0x69	; 105
    3058:	70 e0       	ldi	r23, 0x00	; 0
    305a:	8c e1       	ldi	r24, 0x1C	; 28
    305c:	90 e0       	ldi	r25, 0x00	; 0
    305e:	0e 94 74 10 	call	0x20e8	; 0x20e8 <Line>
	PrintLCD(20,120,235,145 ," > X-ica", ALINE_LEFT, GOLD, 1);
    3062:	0f 2e       	mov	r0, r31
    3064:	f8 e0       	ldi	r31, 0x08	; 8
    3066:	cf 2e       	mov	r12, r31
    3068:	f5 ea       	ldi	r31, 0xA5	; 165
    306a:	df 2e       	mov	r13, r31
    306c:	f0 2d       	mov	r31, r0
    306e:	09 ee       	ldi	r16, 0xE9	; 233
    3070:	10 e0       	ldi	r17, 0x00	; 0
    3072:	21 e9       	ldi	r18, 0x91	; 145
    3074:	30 e0       	ldi	r19, 0x00	; 0
    3076:	4b ee       	ldi	r20, 0xEB	; 235
    3078:	50 e0       	ldi	r21, 0x00	; 0
    307a:	68 e7       	ldi	r22, 0x78	; 120
    307c:	70 e0       	ldi	r23, 0x00	; 0
    307e:	84 e1       	ldi	r24, 0x14	; 20
    3080:	90 e0       	ldi	r25, 0x00	; 0
    3082:	0e 94 c9 13 	call	0x2792	; 0x2792 <PrintLCD>
	PrintLCD(20,150,235,175 ," > HAK", ALINE_LEFT, YELLOW, 1);
    3086:	0f 2e       	mov	r0, r31
    3088:	f0 ee       	ldi	r31, 0xE0	; 224
    308a:	cf 2e       	mov	r12, r31
    308c:	dd 24       	eor	r13, r13
    308e:	da 94       	dec	r13
    3090:	f0 2d       	mov	r31, r0
    3092:	02 ef       	ldi	r16, 0xF2	; 242
    3094:	10 e0       	ldi	r17, 0x00	; 0
    3096:	2f ea       	ldi	r18, 0xAF	; 175
    3098:	30 e0       	ldi	r19, 0x00	; 0
    309a:	4b ee       	ldi	r20, 0xEB	; 235
    309c:	50 e0       	ldi	r21, 0x00	; 0
    309e:	66 e9       	ldi	r22, 0x96	; 150
    30a0:	70 e0       	ldi	r23, 0x00	; 0
    30a2:	84 e1       	ldi	r24, 0x14	; 20
    30a4:	90 e0       	ldi	r25, 0x00	; 0
    30a6:	0e 94 c9 13 	call	0x2792	; 0x2792 <PrintLCD>
	PrintLCD(20,180,235,205 ," > HZZO Obvezno", ALINE_LEFT, SILVER, 1);
    30aa:	0f 2e       	mov	r0, r31
    30ac:	f0 e1       	ldi	r31, 0x10	; 16
    30ae:	cf 2e       	mov	r12, r31
    30b0:	f5 ea       	ldi	r31, 0xA5	; 165
    30b2:	df 2e       	mov	r13, r31
    30b4:	f0 2d       	mov	r31, r0
    30b6:	09 ef       	ldi	r16, 0xF9	; 249
    30b8:	10 e0       	ldi	r17, 0x00	; 0
    30ba:	2d ec       	ldi	r18, 0xCD	; 205
    30bc:	30 e0       	ldi	r19, 0x00	; 0
    30be:	4b ee       	ldi	r20, 0xEB	; 235
    30c0:	50 e0       	ldi	r21, 0x00	; 0
    30c2:	64 eb       	ldi	r22, 0xB4	; 180
    30c4:	70 e0       	ldi	r23, 0x00	; 0
    30c6:	84 e1       	ldi	r24, 0x14	; 20
    30c8:	90 e0       	ldi	r25, 0x00	; 0
    30ca:	0e 94 c9 13 	call	0x2792	; 0x2792 <PrintLCD>
	PrintLCD(20,210,235,235 ," > HZZO Dopunsko", ALINE_LEFT, ORANGE, 1);
    30ce:	0f 2e       	mov	r0, r31
    30d0:	f5 ea       	ldi	r31, 0xA5	; 165
    30d2:	cf 2e       	mov	r12, r31
    30d4:	f3 ee       	ldi	r31, 0xE3	; 227
    30d6:	df 2e       	mov	r13, r31
    30d8:	f0 2d       	mov	r31, r0
    30da:	09 e0       	ldi	r16, 0x09	; 9
    30dc:	11 e0       	ldi	r17, 0x01	; 1
    30de:	2b ee       	ldi	r18, 0xEB	; 235
    30e0:	30 e0       	ldi	r19, 0x00	; 0
    30e2:	4b ee       	ldi	r20, 0xEB	; 235
    30e4:	50 e0       	ldi	r21, 0x00	; 0
    30e6:	62 ed       	ldi	r22, 0xD2	; 210
    30e8:	70 e0       	ldi	r23, 0x00	; 0
    30ea:	84 e1       	ldi	r24, 0x14	; 20
    30ec:	90 e0       	ldi	r25, 0x00	; 0
    30ee:	0e 94 c9 13 	call	0x2792	; 0x2792 <PrintLCD>
	
	PrintLCD(8,260,235,250 ,"SWIPE IT!", ALINE_CENTER, WHITE, 2);
    30f2:	68 94       	set
    30f4:	aa 24       	eor	r10, r10
    30f6:	a1 f8       	bld	r10, 1
    30f8:	cc 24       	eor	r12, r12
    30fa:	ca 94       	dec	r12
    30fc:	dc 2c       	mov	r13, r12
    30fe:	ee 24       	eor	r14, r14
    3100:	e3 94       	inc	r14
    3102:	0a e1       	ldi	r16, 0x1A	; 26
    3104:	11 e0       	ldi	r17, 0x01	; 1
    3106:	2a ef       	ldi	r18, 0xFA	; 250
    3108:	30 e0       	ldi	r19, 0x00	; 0
    310a:	4b ee       	ldi	r20, 0xEB	; 235
    310c:	50 e0       	ldi	r21, 0x00	; 0
    310e:	64 e0       	ldi	r22, 0x04	; 4
    3110:	71 e0       	ldi	r23, 0x01	; 1
    3112:	88 e0       	ldi	r24, 0x08	; 8
    3114:	90 e0       	ldi	r25, 0x00	; 0
    3116:	0e 94 c9 13 	call	0x2792	; 0x2792 <PrintLCD>
	
	InfoSwipe();
    311a:	0e 94 21 17 	call	0x2e42	; 0x2e42 <InfoSwipe>

}
    311e:	64 96       	adiw	r28, 0x14	; 20
    3120:	0f b6       	in	r0, 0x3f	; 63
    3122:	f8 94       	cli
    3124:	de bf       	out	0x3e, r29	; 62
    3126:	0f be       	out	0x3f, r0	; 63
    3128:	cd bf       	out	0x3d, r28	; 61
    312a:	df 91       	pop	r29
    312c:	cf 91       	pop	r28
    312e:	1f 91       	pop	r17
    3130:	0f 91       	pop	r16
    3132:	ef 90       	pop	r14
    3134:	df 90       	pop	r13
    3136:	cf 90       	pop	r12
    3138:	af 90       	pop	r10
    313a:	08 95       	ret

0000313c <ShowInfoScreen>:
}

/**
@brief Funkcija koja prikazuje formatirani ispis sadraja ovisno o privilegijama i kartici.
*/
void ShowInfoScreen(){
    313c:	8f 92       	push	r8
    313e:	9f 92       	push	r9
    3140:	af 92       	push	r10
    3142:	cf 92       	push	r12
    3144:	df 92       	push	r13
    3146:	ef 92       	push	r14
    3148:	0f 93       	push	r16
    314a:	1f 93       	push	r17
    314c:	cf 93       	push	r28
    314e:	df 93       	push	r29
    3150:	cd b7       	in	r28, 0x3d	; 61
    3152:	de b7       	in	r29, 0x3e	; 62
    3154:	64 97       	sbiw	r28, 0x14	; 20
    3156:	0f b6       	in	r0, 0x3f	; 63
    3158:	f8 94       	cli
    315a:	de bf       	out	0x3e, r29	; 62
    315c:	0f be       	out	0x3f, r0	; 63
    315e:	cd bf       	out	0x3d, r28	; 61
	
	char txt[20];
	
	switch(brojKartice) {
    3160:	80 91 f7 01 	lds	r24, 0x01F7
    3164:	90 91 f8 01 	lds	r25, 0x01F8
    3168:	82 30       	cpi	r24, 0x02	; 2
    316a:	91 05       	cpc	r25, r1
    316c:	09 f4       	brne	.+2      	; 0x3170 <ShowInfoScreen+0x34>
    316e:	08 c1       	rjmp	.+528    	; 0x3380 <ShowInfoScreen+0x244>
    3170:	24 f4       	brge	.+8      	; 0x317a <ShowInfoScreen+0x3e>
    3172:	01 97       	sbiw	r24, 0x01	; 1
    3174:	09 f0       	breq	.+2      	; 0x3178 <ShowInfoScreen+0x3c>
    3176:	7e c4       	rjmp	.+2300   	; 0x3a74 <ShowInfoScreen+0x938>
    3178:	08 c0       	rjmp	.+16     	; 0x318a <ShowInfoScreen+0x4e>
    317a:	83 30       	cpi	r24, 0x03	; 3
    317c:	91 05       	cpc	r25, r1
    317e:	09 f4       	brne	.+2      	; 0x3182 <ShowInfoScreen+0x46>
    3180:	10 c2       	rjmp	.+1056   	; 0x35a2 <ShowInfoScreen+0x466>
    3182:	04 97       	sbiw	r24, 0x04	; 4
    3184:	09 f0       	breq	.+2      	; 0x3188 <ShowInfoScreen+0x4c>
    3186:	76 c4       	rjmp	.+2284   	; 0x3a74 <ShowInfoScreen+0x938>
    3188:	37 c3       	rjmp	.+1646   	; 0x37f8 <ShowInfoScreen+0x6bc>
		case XICA:
		Line(1,25,239,25);
    318a:	29 e1       	ldi	r18, 0x19	; 25
    318c:	30 e0       	ldi	r19, 0x00	; 0
    318e:	4f ee       	ldi	r20, 0xEF	; 239
    3190:	50 e0       	ldi	r21, 0x00	; 0
    3192:	69 e1       	ldi	r22, 0x19	; 25
    3194:	70 e0       	ldi	r23, 0x00	; 0
    3196:	81 e0       	ldi	r24, 0x01	; 1
    3198:	90 e0       	ldi	r25, 0x00	; 0
    319a:	0e 94 74 10 	call	0x20e8	; 0x20e8 <Line>
		Line(1,26,239,26);
    319e:	2a e1       	ldi	r18, 0x1A	; 26
    31a0:	30 e0       	ldi	r19, 0x00	; 0
    31a2:	4f ee       	ldi	r20, 0xEF	; 239
    31a4:	50 e0       	ldi	r21, 0x00	; 0
    31a6:	6a e1       	ldi	r22, 0x1A	; 26
    31a8:	70 e0       	ldi	r23, 0x00	; 0
    31aa:	81 e0       	ldi	r24, 0x01	; 1
    31ac:	90 e0       	ldi	r25, 0x00	; 0
    31ae:	0e 94 74 10 	call	0x20e8	; 0x20e8 <Line>
		PrintLCD(5,0,235,22, "X-ica", ALINE_CENTER, GOLD, 1);
    31b2:	aa 24       	eor	r10, r10
    31b4:	a3 94       	inc	r10
    31b6:	0f 2e       	mov	r0, r31
    31b8:	f8 e0       	ldi	r31, 0x08	; 8
    31ba:	cf 2e       	mov	r12, r31
    31bc:	f5 ea       	ldi	r31, 0xA5	; 165
    31be:	df 2e       	mov	r13, r31
    31c0:	f0 2d       	mov	r31, r0
    31c2:	ee 24       	eor	r14, r14
    31c4:	e3 94       	inc	r14
    31c6:	0c ee       	ldi	r16, 0xEC	; 236
    31c8:	10 e0       	ldi	r17, 0x00	; 0
    31ca:	26 e1       	ldi	r18, 0x16	; 22
    31cc:	30 e0       	ldi	r19, 0x00	; 0
    31ce:	4b ee       	ldi	r20, 0xEB	; 235
    31d0:	50 e0       	ldi	r21, 0x00	; 0
    31d2:	60 e0       	ldi	r22, 0x00	; 0
    31d4:	70 e0       	ldi	r23, 0x00	; 0
    31d6:	85 e0       	ldi	r24, 0x05	; 5
    31d8:	90 e0       	ldi	r25, 0x00	; 0
    31da:	0e 94 c9 13 	call	0x2792	; 0x2792 <PrintLCD>
		//PrintLCD(15,0,230,22, "BACK", ALINE_RIGHT, LIGHTBLUE,1);
		
		//PrintLCD(8,280,235,305 , "BACK", ALINE_CENTER, LIGHTBLUE,1);
		strcpy(txt,korisnik.ime);
    31de:	60 91 fb 01 	lds	r22, 0x01FB
    31e2:	70 91 fc 01 	lds	r23, 0x01FC
    31e6:	88 24       	eor	r8, r8
    31e8:	83 94       	inc	r8
    31ea:	91 2c       	mov	r9, r1
    31ec:	8c 0e       	add	r8, r28
    31ee:	9d 1e       	adc	r9, r29
    31f0:	c4 01       	movw	r24, r8
    31f2:	0e 94 74 22 	call	0x44e8	; 0x44e8 <strcpy>
		strcat(txt," ");
    31f6:	f4 01       	movw	r30, r8
    31f8:	01 90       	ld	r0, Z+
    31fa:	00 20       	and	r0, r0
    31fc:	e9 f7       	brne	.-6      	; 0x31f8 <ShowInfoScreen+0xbc>
    31fe:	31 97       	sbiw	r30, 0x01	; 1
    3200:	80 e2       	ldi	r24, 0x20	; 32
    3202:	90 e0       	ldi	r25, 0x00	; 0
    3204:	91 83       	std	Z+1, r25	; 0x01
    3206:	80 83       	st	Z, r24
		PrintLCD(10,20,235,65 ,"Ime i prezime", ALINE_CENTER,WHITE,1);
    3208:	cc 24       	eor	r12, r12
    320a:	ca 94       	dec	r12
    320c:	dc 2c       	mov	r13, r12
    320e:	04 e2       	ldi	r16, 0x24	; 36
    3210:	11 e0       	ldi	r17, 0x01	; 1
    3212:	21 e4       	ldi	r18, 0x41	; 65
    3214:	30 e0       	ldi	r19, 0x00	; 0
    3216:	4b ee       	ldi	r20, 0xEB	; 235
    3218:	50 e0       	ldi	r21, 0x00	; 0
    321a:	64 e1       	ldi	r22, 0x14	; 20
    321c:	70 e0       	ldi	r23, 0x00	; 0
    321e:	8a e0       	ldi	r24, 0x0A	; 10
    3220:	90 e0       	ldi	r25, 0x00	; 0
    3222:	0e 94 c9 13 	call	0x2792	; 0x2792 <PrintLCD>
		Rectangle(5,60,235,95);
    3226:	2f e5       	ldi	r18, 0x5F	; 95
    3228:	30 e0       	ldi	r19, 0x00	; 0
    322a:	4b ee       	ldi	r20, 0xEB	; 235
    322c:	50 e0       	ldi	r21, 0x00	; 0
    322e:	6c e3       	ldi	r22, 0x3C	; 60
    3230:	70 e0       	ldi	r23, 0x00	; 0
    3232:	85 e0       	ldi	r24, 0x05	; 5
    3234:	90 e0       	ldi	r25, 0x00	; 0
    3236:	0e 94 87 11 	call	0x230e	; 0x230e <Rectangle>
		Rectangle(6,61,234,96);
    323a:	20 e6       	ldi	r18, 0x60	; 96
    323c:	30 e0       	ldi	r19, 0x00	; 0
    323e:	4a ee       	ldi	r20, 0xEA	; 234
    3240:	50 e0       	ldi	r21, 0x00	; 0
    3242:	6d e3       	ldi	r22, 0x3D	; 61
    3244:	70 e0       	ldi	r23, 0x00	; 0
    3246:	86 e0       	ldi	r24, 0x06	; 6
    3248:	90 e0       	ldi	r25, 0x00	; 0
    324a:	0e 94 87 11 	call	0x230e	; 0x230e <Rectangle>
		PrintLCD(10,62,235,90, strcat(txt,korisnik.prezime), ALINE_CENTER, YELLOW, 1);
    324e:	60 91 fd 01 	lds	r22, 0x01FD
    3252:	70 91 fe 01 	lds	r23, 0x01FE
    3256:	c4 01       	movw	r24, r8
    3258:	0e 94 60 22 	call	0x44c0	; 0x44c0 <strcat>
    325c:	0f 2e       	mov	r0, r31
    325e:	f0 ee       	ldi	r31, 0xE0	; 224
    3260:	cf 2e       	mov	r12, r31
    3262:	dd 24       	eor	r13, r13
    3264:	da 94       	dec	r13
    3266:	f0 2d       	mov	r31, r0
    3268:	8c 01       	movw	r16, r24
    326a:	2a e5       	ldi	r18, 0x5A	; 90
    326c:	30 e0       	ldi	r19, 0x00	; 0
    326e:	4b ee       	ldi	r20, 0xEB	; 235
    3270:	50 e0       	ldi	r21, 0x00	; 0
    3272:	6e e3       	ldi	r22, 0x3E	; 62
    3274:	70 e0       	ldi	r23, 0x00	; 0
    3276:	8a e0       	ldi	r24, 0x0A	; 10
    3278:	90 e0       	ldi	r25, 0x00	; 0
    327a:	0e 94 c9 13 	call	0x2792	; 0x2792 <PrintLCD>
		
		if(privilegije==ADMIN || privilegije==MODERATOR ){
    327e:	80 91 f9 01 	lds	r24, 0x01F9
    3282:	90 91 fa 01 	lds	r25, 0x01FA
    3286:	01 97       	sbiw	r24, 0x01	; 1
    3288:	02 97       	sbiw	r24, 0x02	; 2
    328a:	b8 f5       	brcc	.+110    	; 0x32fa <ShowInfoScreen+0x1be>
			PrintLCD(10,90,235,135 ,"JMBAG", ALINE_CENTER,WHITE,1);
    328c:	cc 24       	eor	r12, r12
    328e:	ca 94       	dec	r12
    3290:	dc 2c       	mov	r13, r12
    3292:	02 e3       	ldi	r16, 0x32	; 50
    3294:	11 e0       	ldi	r17, 0x01	; 1
    3296:	27 e8       	ldi	r18, 0x87	; 135
    3298:	30 e0       	ldi	r19, 0x00	; 0
    329a:	4b ee       	ldi	r20, 0xEB	; 235
    329c:	50 e0       	ldi	r21, 0x00	; 0
    329e:	6a e5       	ldi	r22, 0x5A	; 90
    32a0:	70 e0       	ldi	r23, 0x00	; 0
    32a2:	8a e0       	ldi	r24, 0x0A	; 10
    32a4:	90 e0       	ldi	r25, 0x00	; 0
    32a6:	0e 94 c9 13 	call	0x2792	; 0x2792 <PrintLCD>
			Rectangle(5,130,235,165);
    32aa:	25 ea       	ldi	r18, 0xA5	; 165
    32ac:	30 e0       	ldi	r19, 0x00	; 0
    32ae:	4b ee       	ldi	r20, 0xEB	; 235
    32b0:	50 e0       	ldi	r21, 0x00	; 0
    32b2:	62 e8       	ldi	r22, 0x82	; 130
    32b4:	70 e0       	ldi	r23, 0x00	; 0
    32b6:	85 e0       	ldi	r24, 0x05	; 5
    32b8:	90 e0       	ldi	r25, 0x00	; 0
    32ba:	0e 94 87 11 	call	0x230e	; 0x230e <Rectangle>
			Rectangle(6,131,234,166);
    32be:	26 ea       	ldi	r18, 0xA6	; 166
    32c0:	30 e0       	ldi	r19, 0x00	; 0
    32c2:	4a ee       	ldi	r20, 0xEA	; 234
    32c4:	50 e0       	ldi	r21, 0x00	; 0
    32c6:	63 e8       	ldi	r22, 0x83	; 131
    32c8:	70 e0       	ldi	r23, 0x00	; 0
    32ca:	86 e0       	ldi	r24, 0x06	; 6
    32cc:	90 e0       	ldi	r25, 0x00	; 0
    32ce:	0e 94 87 11 	call	0x230e	; 0x230e <Rectangle>
			PrintLCD(10,132,235,160, korisnik.jmbag, ALINE_CENTER, YELLOW, 1);
    32d2:	00 91 01 02 	lds	r16, 0x0201
    32d6:	10 91 02 02 	lds	r17, 0x0202
    32da:	0f 2e       	mov	r0, r31
    32dc:	f0 ee       	ldi	r31, 0xE0	; 224
    32de:	cf 2e       	mov	r12, r31
    32e0:	dd 24       	eor	r13, r13
    32e2:	da 94       	dec	r13
    32e4:	f0 2d       	mov	r31, r0
    32e6:	20 ea       	ldi	r18, 0xA0	; 160
    32e8:	30 e0       	ldi	r19, 0x00	; 0
    32ea:	4b ee       	ldi	r20, 0xEB	; 235
    32ec:	50 e0       	ldi	r21, 0x00	; 0
    32ee:	64 e8       	ldi	r22, 0x84	; 132
    32f0:	70 e0       	ldi	r23, 0x00	; 0
    32f2:	8a e0       	ldi	r24, 0x0A	; 10
    32f4:	90 e0       	ldi	r25, 0x00	; 0
    32f6:	0e 94 c9 13 	call	0x2792	; 0x2792 <PrintLCD>
		}
		
		if(privilegije==ADMIN){
    32fa:	80 91 f9 01 	lds	r24, 0x01F9
    32fe:	90 91 fa 01 	lds	r25, 0x01FA
    3302:	01 97       	sbiw	r24, 0x01	; 1
    3304:	09 f0       	breq	.+2      	; 0x3308 <ShowInfoScreen+0x1cc>
    3306:	cb c3       	rjmp	.+1942   	; 0x3a9e <ShowInfoScreen+0x962>
			PrintLCD(10,160,235,205 ,"JMBG", ALINE_CENTER,WHITE,1);
    3308:	aa 24       	eor	r10, r10
    330a:	a3 94       	inc	r10
    330c:	cc 24       	eor	r12, r12
    330e:	ca 94       	dec	r12
    3310:	dc 2c       	mov	r13, r12
    3312:	ee 24       	eor	r14, r14
    3314:	e3 94       	inc	r14
    3316:	08 e3       	ldi	r16, 0x38	; 56
    3318:	11 e0       	ldi	r17, 0x01	; 1
    331a:	2d ec       	ldi	r18, 0xCD	; 205
    331c:	30 e0       	ldi	r19, 0x00	; 0
    331e:	4b ee       	ldi	r20, 0xEB	; 235
    3320:	50 e0       	ldi	r21, 0x00	; 0
    3322:	60 ea       	ldi	r22, 0xA0	; 160
    3324:	70 e0       	ldi	r23, 0x00	; 0
    3326:	8a e0       	ldi	r24, 0x0A	; 10
    3328:	90 e0       	ldi	r25, 0x00	; 0
    332a:	0e 94 c9 13 	call	0x2792	; 0x2792 <PrintLCD>
			Rectangle(5,200,235,235);
    332e:	2b ee       	ldi	r18, 0xEB	; 235
    3330:	30 e0       	ldi	r19, 0x00	; 0
    3332:	4b ee       	ldi	r20, 0xEB	; 235
    3334:	50 e0       	ldi	r21, 0x00	; 0
    3336:	68 ec       	ldi	r22, 0xC8	; 200
    3338:	70 e0       	ldi	r23, 0x00	; 0
    333a:	85 e0       	ldi	r24, 0x05	; 5
    333c:	90 e0       	ldi	r25, 0x00	; 0
    333e:	0e 94 87 11 	call	0x230e	; 0x230e <Rectangle>
			Rectangle(6,201,234,236);
    3342:	2c ee       	ldi	r18, 0xEC	; 236
    3344:	30 e0       	ldi	r19, 0x00	; 0
    3346:	4a ee       	ldi	r20, 0xEA	; 234
    3348:	50 e0       	ldi	r21, 0x00	; 0
    334a:	69 ec       	ldi	r22, 0xC9	; 201
    334c:	70 e0       	ldi	r23, 0x00	; 0
    334e:	86 e0       	ldi	r24, 0x06	; 6
    3350:	90 e0       	ldi	r25, 0x00	; 0
    3352:	0e 94 87 11 	call	0x230e	; 0x230e <Rectangle>
			PrintLCD(10,202,235,230, korisnik.jmbg, ALINE_CENTER, YELLOW, 1);
    3356:	00 91 ff 01 	lds	r16, 0x01FF
    335a:	10 91 00 02 	lds	r17, 0x0200
    335e:	0f 2e       	mov	r0, r31
    3360:	f0 ee       	ldi	r31, 0xE0	; 224
    3362:	cf 2e       	mov	r12, r31
    3364:	dd 24       	eor	r13, r13
    3366:	da 94       	dec	r13
    3368:	f0 2d       	mov	r31, r0
    336a:	26 ee       	ldi	r18, 0xE6	; 230
    336c:	30 e0       	ldi	r19, 0x00	; 0
    336e:	4b ee       	ldi	r20, 0xEB	; 235
    3370:	50 e0       	ldi	r21, 0x00	; 0
    3372:	6a ec       	ldi	r22, 0xCA	; 202
    3374:	70 e0       	ldi	r23, 0x00	; 0
    3376:	8a e0       	ldi	r24, 0x0A	; 10
    3378:	90 e0       	ldi	r25, 0x00	; 0
    337a:	0e 94 c9 13 	call	0x2792	; 0x2792 <PrintLCD>
    337e:	8f c3       	rjmp	.+1822   	; 0x3a9e <ShowInfoScreen+0x962>
		}
		break;
		
		case HAK:
		Line(1,25,239,25);
    3380:	29 e1       	ldi	r18, 0x19	; 25
    3382:	30 e0       	ldi	r19, 0x00	; 0
    3384:	4f ee       	ldi	r20, 0xEF	; 239
    3386:	50 e0       	ldi	r21, 0x00	; 0
    3388:	69 e1       	ldi	r22, 0x19	; 25
    338a:	70 e0       	ldi	r23, 0x00	; 0
    338c:	81 e0       	ldi	r24, 0x01	; 1
    338e:	90 e0       	ldi	r25, 0x00	; 0
    3390:	0e 94 74 10 	call	0x20e8	; 0x20e8 <Line>
		Line(1,26,239,26);
    3394:	2a e1       	ldi	r18, 0x1A	; 26
    3396:	30 e0       	ldi	r19, 0x00	; 0
    3398:	4f ee       	ldi	r20, 0xEF	; 239
    339a:	50 e0       	ldi	r21, 0x00	; 0
    339c:	6a e1       	ldi	r22, 0x1A	; 26
    339e:	70 e0       	ldi	r23, 0x00	; 0
    33a0:	81 e0       	ldi	r24, 0x01	; 1
    33a2:	90 e0       	ldi	r25, 0x00	; 0
    33a4:	0e 94 74 10 	call	0x20e8	; 0x20e8 <Line>
		PrintLCD(5,0,235,22, "HAK card", ALINE_CENTER, YELLOW, 1);
    33a8:	aa 24       	eor	r10, r10
    33aa:	a3 94       	inc	r10
    33ac:	0f 2e       	mov	r0, r31
    33ae:	f0 ee       	ldi	r31, 0xE0	; 224
    33b0:	cf 2e       	mov	r12, r31
    33b2:	dd 24       	eor	r13, r13
    33b4:	da 94       	dec	r13
    33b6:	f0 2d       	mov	r31, r0
    33b8:	ee 24       	eor	r14, r14
    33ba:	e3 94       	inc	r14
    33bc:	0d e3       	ldi	r16, 0x3D	; 61
    33be:	11 e0       	ldi	r17, 0x01	; 1
    33c0:	26 e1       	ldi	r18, 0x16	; 22
    33c2:	30 e0       	ldi	r19, 0x00	; 0
    33c4:	4b ee       	ldi	r20, 0xEB	; 235
    33c6:	50 e0       	ldi	r21, 0x00	; 0
    33c8:	60 e0       	ldi	r22, 0x00	; 0
    33ca:	70 e0       	ldi	r23, 0x00	; 0
    33cc:	85 e0       	ldi	r24, 0x05	; 5
    33ce:	90 e0       	ldi	r25, 0x00	; 0
    33d0:	0e 94 c9 13 	call	0x2792	; 0x2792 <PrintLCD>
		//PrintLCD(15,0,230,22, "BACK", ALINE_RIGHT, LIGHTBLUE,1);
		strcpy(txt,korisnik.ime);
    33d4:	60 91 fb 01 	lds	r22, 0x01FB
    33d8:	70 91 fc 01 	lds	r23, 0x01FC
    33dc:	88 24       	eor	r8, r8
    33de:	83 94       	inc	r8
    33e0:	91 2c       	mov	r9, r1
    33e2:	8c 0e       	add	r8, r28
    33e4:	9d 1e       	adc	r9, r29
    33e6:	c4 01       	movw	r24, r8
    33e8:	0e 94 74 22 	call	0x44e8	; 0x44e8 <strcpy>
		strcat(txt," ");
    33ec:	f4 01       	movw	r30, r8
    33ee:	01 90       	ld	r0, Z+
    33f0:	00 20       	and	r0, r0
    33f2:	e9 f7       	brne	.-6      	; 0x33ee <ShowInfoScreen+0x2b2>
    33f4:	31 97       	sbiw	r30, 0x01	; 1
    33f6:	80 e2       	ldi	r24, 0x20	; 32
    33f8:	90 e0       	ldi	r25, 0x00	; 0
    33fa:	91 83       	std	Z+1, r25	; 0x01
    33fc:	80 83       	st	Z, r24
		PrintLCD(10,20,235,65 ,"Ime i prezime", ALINE_CENTER,WHITE,1);
    33fe:	cc 24       	eor	r12, r12
    3400:	ca 94       	dec	r12
    3402:	dc 2c       	mov	r13, r12
    3404:	04 e2       	ldi	r16, 0x24	; 36
    3406:	11 e0       	ldi	r17, 0x01	; 1
    3408:	21 e4       	ldi	r18, 0x41	; 65
    340a:	30 e0       	ldi	r19, 0x00	; 0
    340c:	4b ee       	ldi	r20, 0xEB	; 235
    340e:	50 e0       	ldi	r21, 0x00	; 0
    3410:	64 e1       	ldi	r22, 0x14	; 20
    3412:	70 e0       	ldi	r23, 0x00	; 0
    3414:	8a e0       	ldi	r24, 0x0A	; 10
    3416:	90 e0       	ldi	r25, 0x00	; 0
    3418:	0e 94 c9 13 	call	0x2792	; 0x2792 <PrintLCD>
		Rectangle(5,60,235,95);
    341c:	2f e5       	ldi	r18, 0x5F	; 95
    341e:	30 e0       	ldi	r19, 0x00	; 0
    3420:	4b ee       	ldi	r20, 0xEB	; 235
    3422:	50 e0       	ldi	r21, 0x00	; 0
    3424:	6c e3       	ldi	r22, 0x3C	; 60
    3426:	70 e0       	ldi	r23, 0x00	; 0
    3428:	85 e0       	ldi	r24, 0x05	; 5
    342a:	90 e0       	ldi	r25, 0x00	; 0
    342c:	0e 94 87 11 	call	0x230e	; 0x230e <Rectangle>
		PrintLCD(10,62,235,90, strcat(txt,korisnik.prezime), ALINE_CENTER, YELLOW, 1);
    3430:	60 91 fd 01 	lds	r22, 0x01FD
    3434:	70 91 fe 01 	lds	r23, 0x01FE
    3438:	c4 01       	movw	r24, r8
    343a:	0e 94 60 22 	call	0x44c0	; 0x44c0 <strcat>
    343e:	0f 2e       	mov	r0, r31
    3440:	f0 ee       	ldi	r31, 0xE0	; 224
    3442:	cf 2e       	mov	r12, r31
    3444:	dd 24       	eor	r13, r13
    3446:	da 94       	dec	r13
    3448:	f0 2d       	mov	r31, r0
    344a:	8c 01       	movw	r16, r24
    344c:	2a e5       	ldi	r18, 0x5A	; 90
    344e:	30 e0       	ldi	r19, 0x00	; 0
    3450:	4b ee       	ldi	r20, 0xEB	; 235
    3452:	50 e0       	ldi	r21, 0x00	; 0
    3454:	6e e3       	ldi	r22, 0x3E	; 62
    3456:	70 e0       	ldi	r23, 0x00	; 0
    3458:	8a e0       	ldi	r24, 0x0A	; 10
    345a:	90 e0       	ldi	r25, 0x00	; 0
    345c:	0e 94 c9 13 	call	0x2792	; 0x2792 <PrintLCD>
		
		if(privilegije==ADMIN || privilegije==MODERATOR ){
    3460:	80 91 f9 01 	lds	r24, 0x01F9
    3464:	90 91 fa 01 	lds	r25, 0x01FA
    3468:	01 97       	sbiw	r24, 0x01	; 1
    346a:	02 97       	sbiw	r24, 0x02	; 2
    346c:	68 f5       	brcc	.+90     	; 0x34c8 <ShowInfoScreen+0x38c>
			PrintLCD(10,90,235,135 ,"Broj autokluba", ALINE_CENTER,WHITE,1);
    346e:	cc 24       	eor	r12, r12
    3470:	ca 94       	dec	r12
    3472:	dc 2c       	mov	r13, r12
    3474:	06 e4       	ldi	r16, 0x46	; 70
    3476:	11 e0       	ldi	r17, 0x01	; 1
    3478:	27 e8       	ldi	r18, 0x87	; 135
    347a:	30 e0       	ldi	r19, 0x00	; 0
    347c:	4b ee       	ldi	r20, 0xEB	; 235
    347e:	50 e0       	ldi	r21, 0x00	; 0
    3480:	6a e5       	ldi	r22, 0x5A	; 90
    3482:	70 e0       	ldi	r23, 0x00	; 0
    3484:	8a e0       	ldi	r24, 0x0A	; 10
    3486:	90 e0       	ldi	r25, 0x00	; 0
    3488:	0e 94 c9 13 	call	0x2792	; 0x2792 <PrintLCD>
			Rectangle(5,130,235,165);
    348c:	25 ea       	ldi	r18, 0xA5	; 165
    348e:	30 e0       	ldi	r19, 0x00	; 0
    3490:	4b ee       	ldi	r20, 0xEB	; 235
    3492:	50 e0       	ldi	r21, 0x00	; 0
    3494:	62 e8       	ldi	r22, 0x82	; 130
    3496:	70 e0       	ldi	r23, 0x00	; 0
    3498:	85 e0       	ldi	r24, 0x05	; 5
    349a:	90 e0       	ldi	r25, 0x00	; 0
    349c:	0e 94 87 11 	call	0x230e	; 0x230e <Rectangle>
			PrintLCD(10,132,235,160, korisnik.brojAutokluba, ALINE_CENTER, YELLOW, 1);
    34a0:	00 91 05 02 	lds	r16, 0x0205
    34a4:	10 91 06 02 	lds	r17, 0x0206
    34a8:	0f 2e       	mov	r0, r31
    34aa:	f0 ee       	ldi	r31, 0xE0	; 224
    34ac:	cf 2e       	mov	r12, r31
    34ae:	dd 24       	eor	r13, r13
    34b0:	da 94       	dec	r13
    34b2:	f0 2d       	mov	r31, r0
    34b4:	20 ea       	ldi	r18, 0xA0	; 160
    34b6:	30 e0       	ldi	r19, 0x00	; 0
    34b8:	4b ee       	ldi	r20, 0xEB	; 235
    34ba:	50 e0       	ldi	r21, 0x00	; 0
    34bc:	64 e8       	ldi	r22, 0x84	; 132
    34be:	70 e0       	ldi	r23, 0x00	; 0
    34c0:	8a e0       	ldi	r24, 0x0A	; 10
    34c2:	90 e0       	ldi	r25, 0x00	; 0
    34c4:	0e 94 c9 13 	call	0x2792	; 0x2792 <PrintLCD>
		}
		
		if(privilegije==ADMIN){
    34c8:	80 91 f9 01 	lds	r24, 0x01F9
    34cc:	90 91 fa 01 	lds	r25, 0x01FA
    34d0:	01 97       	sbiw	r24, 0x01	; 1
    34d2:	09 f0       	breq	.+2      	; 0x34d6 <ShowInfoScreen+0x39a>
    34d4:	e4 c2       	rjmp	.+1480   	; 0x3a9e <ShowInfoScreen+0x962>
			PrintLCD(10,160,235,205 ,"Clanski broj", ALINE_CENTER,WHITE,1);
    34d6:	aa 24       	eor	r10, r10
    34d8:	a3 94       	inc	r10
    34da:	cc 24       	eor	r12, r12
    34dc:	ca 94       	dec	r12
    34de:	dc 2c       	mov	r13, r12
    34e0:	ee 24       	eor	r14, r14
    34e2:	e3 94       	inc	r14
    34e4:	05 e5       	ldi	r16, 0x55	; 85
    34e6:	11 e0       	ldi	r17, 0x01	; 1
    34e8:	2d ec       	ldi	r18, 0xCD	; 205
    34ea:	30 e0       	ldi	r19, 0x00	; 0
    34ec:	4b ee       	ldi	r20, 0xEB	; 235
    34ee:	50 e0       	ldi	r21, 0x00	; 0
    34f0:	60 ea       	ldi	r22, 0xA0	; 160
    34f2:	70 e0       	ldi	r23, 0x00	; 0
    34f4:	8a e0       	ldi	r24, 0x0A	; 10
    34f6:	90 e0       	ldi	r25, 0x00	; 0
    34f8:	0e 94 c9 13 	call	0x2792	; 0x2792 <PrintLCD>
			Rectangle(5,200,235,235);
    34fc:	2b ee       	ldi	r18, 0xEB	; 235
    34fe:	30 e0       	ldi	r19, 0x00	; 0
    3500:	4b ee       	ldi	r20, 0xEB	; 235
    3502:	50 e0       	ldi	r21, 0x00	; 0
    3504:	68 ec       	ldi	r22, 0xC8	; 200
    3506:	70 e0       	ldi	r23, 0x00	; 0
    3508:	85 e0       	ldi	r24, 0x05	; 5
    350a:	90 e0       	ldi	r25, 0x00	; 0
    350c:	0e 94 87 11 	call	0x230e	; 0x230e <Rectangle>
			PrintLCD(10,202,235,230, korisnik.clanskiBroj, ALINE_CENTER, YELLOW, 1);
    3510:	00 91 03 02 	lds	r16, 0x0203
    3514:	10 91 04 02 	lds	r17, 0x0204
    3518:	0f 2e       	mov	r0, r31
    351a:	f0 ee       	ldi	r31, 0xE0	; 224
    351c:	cf 2e       	mov	r12, r31
    351e:	dd 24       	eor	r13, r13
    3520:	da 94       	dec	r13
    3522:	f0 2d       	mov	r31, r0
    3524:	26 ee       	ldi	r18, 0xE6	; 230
    3526:	30 e0       	ldi	r19, 0x00	; 0
    3528:	4b ee       	ldi	r20, 0xEB	; 235
    352a:	50 e0       	ldi	r21, 0x00	; 0
    352c:	6a ec       	ldi	r22, 0xCA	; 202
    352e:	70 e0       	ldi	r23, 0x00	; 0
    3530:	8a e0       	ldi	r24, 0x0A	; 10
    3532:	90 e0       	ldi	r25, 0x00	; 0
    3534:	0e 94 c9 13 	call	0x2792	; 0x2792 <PrintLCD>
		}
		
		if(privilegije==ADMIN){
    3538:	80 91 f9 01 	lds	r24, 0x01F9
    353c:	90 91 fa 01 	lds	r25, 0x01FA
    3540:	01 97       	sbiw	r24, 0x01	; 1
    3542:	09 f0       	breq	.+2      	; 0x3546 <ShowInfoScreen+0x40a>
    3544:	ac c2       	rjmp	.+1368   	; 0x3a9e <ShowInfoScreen+0x962>
			PrintLCD(10,230,235,275 ,"Datum isteka", ALINE_CENTER,WHITE,1);
    3546:	cc 24       	eor	r12, r12
    3548:	ca 94       	dec	r12
    354a:	dc 2c       	mov	r13, r12
    354c:	02 e6       	ldi	r16, 0x62	; 98
    354e:	11 e0       	ldi	r17, 0x01	; 1
    3550:	23 e1       	ldi	r18, 0x13	; 19
    3552:	31 e0       	ldi	r19, 0x01	; 1
    3554:	4b ee       	ldi	r20, 0xEB	; 235
    3556:	50 e0       	ldi	r21, 0x00	; 0
    3558:	66 ee       	ldi	r22, 0xE6	; 230
    355a:	70 e0       	ldi	r23, 0x00	; 0
    355c:	8a e0       	ldi	r24, 0x0A	; 10
    355e:	90 e0       	ldi	r25, 0x00	; 0
    3560:	0e 94 c9 13 	call	0x2792	; 0x2792 <PrintLCD>
			Rectangle(5,270,235,305);
    3564:	21 e3       	ldi	r18, 0x31	; 49
    3566:	31 e0       	ldi	r19, 0x01	; 1
    3568:	4b ee       	ldi	r20, 0xEB	; 235
    356a:	50 e0       	ldi	r21, 0x00	; 0
    356c:	6e e0       	ldi	r22, 0x0E	; 14
    356e:	71 e0       	ldi	r23, 0x01	; 1
    3570:	85 e0       	ldi	r24, 0x05	; 5
    3572:	90 e0       	ldi	r25, 0x00	; 0
    3574:	0e 94 87 11 	call	0x230e	; 0x230e <Rectangle>
			PrintLCD(10,272,235,300, korisnik.datumIsteka, ALINE_CENTER, YELLOW, 1);
    3578:	00 91 07 02 	lds	r16, 0x0207
    357c:	10 91 08 02 	lds	r17, 0x0208
    3580:	0f 2e       	mov	r0, r31
    3582:	f0 ee       	ldi	r31, 0xE0	; 224
    3584:	cf 2e       	mov	r12, r31
    3586:	dd 24       	eor	r13, r13
    3588:	da 94       	dec	r13
    358a:	f0 2d       	mov	r31, r0
    358c:	2c e2       	ldi	r18, 0x2C	; 44
    358e:	31 e0       	ldi	r19, 0x01	; 1
    3590:	4b ee       	ldi	r20, 0xEB	; 235
    3592:	50 e0       	ldi	r21, 0x00	; 0
    3594:	60 e1       	ldi	r22, 0x10	; 16
    3596:	71 e0       	ldi	r23, 0x01	; 1
    3598:	8a e0       	ldi	r24, 0x0A	; 10
    359a:	90 e0       	ldi	r25, 0x00	; 0
    359c:	0e 94 c9 13 	call	0x2792	; 0x2792 <PrintLCD>
    35a0:	7e c2       	rjmp	.+1276   	; 0x3a9e <ShowInfoScreen+0x962>
		}
		break;
		
		case OBVEZNO:
		Line(1,25,239,25);
    35a2:	29 e1       	ldi	r18, 0x19	; 25
    35a4:	30 e0       	ldi	r19, 0x00	; 0
    35a6:	4f ee       	ldi	r20, 0xEF	; 239
    35a8:	50 e0       	ldi	r21, 0x00	; 0
    35aa:	69 e1       	ldi	r22, 0x19	; 25
    35ac:	70 e0       	ldi	r23, 0x00	; 0
    35ae:	81 e0       	ldi	r24, 0x01	; 1
    35b0:	90 e0       	ldi	r25, 0x00	; 0
    35b2:	0e 94 74 10 	call	0x20e8	; 0x20e8 <Line>
		Line(1,26,239,26);
    35b6:	2a e1       	ldi	r18, 0x1A	; 26
    35b8:	30 e0       	ldi	r19, 0x00	; 0
    35ba:	4f ee       	ldi	r20, 0xEF	; 239
    35bc:	50 e0       	ldi	r21, 0x00	; 0
    35be:	6a e1       	ldi	r22, 0x1A	; 26
    35c0:	70 e0       	ldi	r23, 0x00	; 0
    35c2:	81 e0       	ldi	r24, 0x01	; 1
    35c4:	90 e0       	ldi	r25, 0x00	; 0
    35c6:	0e 94 74 10 	call	0x20e8	; 0x20e8 <Line>
		PrintLCD(5,0,235,22, "HZZO Obvezno", ALINE_CENTER, SILVER, 1);
    35ca:	aa 24       	eor	r10, r10
    35cc:	a3 94       	inc	r10
    35ce:	0f 2e       	mov	r0, r31
    35d0:	f0 e1       	ldi	r31, 0x10	; 16
    35d2:	cf 2e       	mov	r12, r31
    35d4:	f5 ea       	ldi	r31, 0xA5	; 165
    35d6:	df 2e       	mov	r13, r31
    35d8:	f0 2d       	mov	r31, r0
    35da:	ee 24       	eor	r14, r14
    35dc:	e3 94       	inc	r14
    35de:	0c ef       	ldi	r16, 0xFC	; 252
    35e0:	10 e0       	ldi	r17, 0x00	; 0
    35e2:	26 e1       	ldi	r18, 0x16	; 22
    35e4:	30 e0       	ldi	r19, 0x00	; 0
    35e6:	4b ee       	ldi	r20, 0xEB	; 235
    35e8:	50 e0       	ldi	r21, 0x00	; 0
    35ea:	60 e0       	ldi	r22, 0x00	; 0
    35ec:	70 e0       	ldi	r23, 0x00	; 0
    35ee:	85 e0       	ldi	r24, 0x05	; 5
    35f0:	90 e0       	ldi	r25, 0x00	; 0
    35f2:	0e 94 c9 13 	call	0x2792	; 0x2792 <PrintLCD>
		//PrintLCD(15,0,230,22, "BACK", ALINE_RIGHT, LIGHTBLUE,1);
		strcpy(txt,korisnik.ime);
    35f6:	60 91 fb 01 	lds	r22, 0x01FB
    35fa:	70 91 fc 01 	lds	r23, 0x01FC
    35fe:	88 24       	eor	r8, r8
    3600:	83 94       	inc	r8
    3602:	91 2c       	mov	r9, r1
    3604:	8c 0e       	add	r8, r28
    3606:	9d 1e       	adc	r9, r29
    3608:	c4 01       	movw	r24, r8
    360a:	0e 94 74 22 	call	0x44e8	; 0x44e8 <strcpy>
		strcat(txt," ");
    360e:	f4 01       	movw	r30, r8
    3610:	01 90       	ld	r0, Z+
    3612:	00 20       	and	r0, r0
    3614:	e9 f7       	brne	.-6      	; 0x3610 <ShowInfoScreen+0x4d4>
    3616:	31 97       	sbiw	r30, 0x01	; 1
    3618:	80 e2       	ldi	r24, 0x20	; 32
    361a:	90 e0       	ldi	r25, 0x00	; 0
    361c:	91 83       	std	Z+1, r25	; 0x01
    361e:	80 83       	st	Z, r24
		PrintLCD(10,20,235,65 ,"Ime i prezime", ALINE_CENTER,WHITE,1);
    3620:	cc 24       	eor	r12, r12
    3622:	ca 94       	dec	r12
    3624:	dc 2c       	mov	r13, r12
    3626:	04 e2       	ldi	r16, 0x24	; 36
    3628:	11 e0       	ldi	r17, 0x01	; 1
    362a:	21 e4       	ldi	r18, 0x41	; 65
    362c:	30 e0       	ldi	r19, 0x00	; 0
    362e:	4b ee       	ldi	r20, 0xEB	; 235
    3630:	50 e0       	ldi	r21, 0x00	; 0
    3632:	64 e1       	ldi	r22, 0x14	; 20
    3634:	70 e0       	ldi	r23, 0x00	; 0
    3636:	8a e0       	ldi	r24, 0x0A	; 10
    3638:	90 e0       	ldi	r25, 0x00	; 0
    363a:	0e 94 c9 13 	call	0x2792	; 0x2792 <PrintLCD>
		Rectangle(5,60,235,95);
    363e:	2f e5       	ldi	r18, 0x5F	; 95
    3640:	30 e0       	ldi	r19, 0x00	; 0
    3642:	4b ee       	ldi	r20, 0xEB	; 235
    3644:	50 e0       	ldi	r21, 0x00	; 0
    3646:	6c e3       	ldi	r22, 0x3C	; 60
    3648:	70 e0       	ldi	r23, 0x00	; 0
    364a:	85 e0       	ldi	r24, 0x05	; 5
    364c:	90 e0       	ldi	r25, 0x00	; 0
    364e:	0e 94 87 11 	call	0x230e	; 0x230e <Rectangle>
		PrintLCD(10,62,235,90, strcat(txt,korisnik.prezime), ALINE_CENTER, YELLOW, 1);
    3652:	60 91 fd 01 	lds	r22, 0x01FD
    3656:	70 91 fe 01 	lds	r23, 0x01FE
    365a:	c4 01       	movw	r24, r8
    365c:	0e 94 60 22 	call	0x44c0	; 0x44c0 <strcat>
    3660:	0f 2e       	mov	r0, r31
    3662:	f0 ee       	ldi	r31, 0xE0	; 224
    3664:	cf 2e       	mov	r12, r31
    3666:	dd 24       	eor	r13, r13
    3668:	da 94       	dec	r13
    366a:	f0 2d       	mov	r31, r0
    366c:	8c 01       	movw	r16, r24
    366e:	2a e5       	ldi	r18, 0x5A	; 90
    3670:	30 e0       	ldi	r19, 0x00	; 0
    3672:	4b ee       	ldi	r20, 0xEB	; 235
    3674:	50 e0       	ldi	r21, 0x00	; 0
    3676:	6e e3       	ldi	r22, 0x3E	; 62
    3678:	70 e0       	ldi	r23, 0x00	; 0
    367a:	8a e0       	ldi	r24, 0x0A	; 10
    367c:	90 e0       	ldi	r25, 0x00	; 0
    367e:	0e 94 c9 13 	call	0x2792	; 0x2792 <PrintLCD>
		
		if(privilegije==ADMIN || privilegije==MODERATOR ){
    3682:	80 91 f9 01 	lds	r24, 0x01F9
    3686:	90 91 fa 01 	lds	r25, 0x01FA
    368a:	01 97       	sbiw	r24, 0x01	; 1
    368c:	02 97       	sbiw	r24, 0x02	; 2
    368e:	08 f0       	brcs	.+2      	; 0x3692 <ShowInfoScreen+0x556>
    3690:	46 c0       	rjmp	.+140    	; 0x371e <ShowInfoScreen+0x5e2>
			strcpy(txt,korisnik.ulica);
    3692:	60 91 0b 02 	lds	r22, 0x020B
    3696:	70 91 0c 02 	lds	r23, 0x020C
    369a:	88 24       	eor	r8, r8
    369c:	83 94       	inc	r8
    369e:	91 2c       	mov	r9, r1
    36a0:	8c 0e       	add	r8, r28
    36a2:	9d 1e       	adc	r9, r29
    36a4:	c4 01       	movw	r24, r8
    36a6:	0e 94 74 22 	call	0x44e8	; 0x44e8 <strcpy>
			strcat(txt," ");
    36aa:	f4 01       	movw	r30, r8
    36ac:	01 90       	ld	r0, Z+
    36ae:	00 20       	and	r0, r0
    36b0:	e9 f7       	brne	.-6      	; 0x36ac <ShowInfoScreen+0x570>
    36b2:	31 97       	sbiw	r30, 0x01	; 1
    36b4:	80 e2       	ldi	r24, 0x20	; 32
    36b6:	90 e0       	ldi	r25, 0x00	; 0
    36b8:	91 83       	std	Z+1, r25	; 0x01
    36ba:	80 83       	st	Z, r24
			PrintLCD(10,90,235,135 ,"Adresa", ALINE_CENTER,WHITE,1);
    36bc:	cc 24       	eor	r12, r12
    36be:	ca 94       	dec	r12
    36c0:	dc 2c       	mov	r13, r12
    36c2:	0f e6       	ldi	r16, 0x6F	; 111
    36c4:	11 e0       	ldi	r17, 0x01	; 1
    36c6:	27 e8       	ldi	r18, 0x87	; 135
    36c8:	30 e0       	ldi	r19, 0x00	; 0
    36ca:	4b ee       	ldi	r20, 0xEB	; 235
    36cc:	50 e0       	ldi	r21, 0x00	; 0
    36ce:	6a e5       	ldi	r22, 0x5A	; 90
    36d0:	70 e0       	ldi	r23, 0x00	; 0
    36d2:	8a e0       	ldi	r24, 0x0A	; 10
    36d4:	90 e0       	ldi	r25, 0x00	; 0
    36d6:	0e 94 c9 13 	call	0x2792	; 0x2792 <PrintLCD>
			Rectangle(5,130,235,165);
    36da:	25 ea       	ldi	r18, 0xA5	; 165
    36dc:	30 e0       	ldi	r19, 0x00	; 0
    36de:	4b ee       	ldi	r20, 0xEB	; 235
    36e0:	50 e0       	ldi	r21, 0x00	; 0
    36e2:	62 e8       	ldi	r22, 0x82	; 130
    36e4:	70 e0       	ldi	r23, 0x00	; 0
    36e6:	85 e0       	ldi	r24, 0x05	; 5
    36e8:	90 e0       	ldi	r25, 0x00	; 0
    36ea:	0e 94 87 11 	call	0x230e	; 0x230e <Rectangle>
			PrintLCD(10,132,235,160, strcat(txt,korisnik.kucniBroj), ALINE_CENTER, YELLOW, 1);
    36ee:	60 91 0d 02 	lds	r22, 0x020D
    36f2:	70 91 0e 02 	lds	r23, 0x020E
    36f6:	c4 01       	movw	r24, r8
    36f8:	0e 94 60 22 	call	0x44c0	; 0x44c0 <strcat>
    36fc:	0f 2e       	mov	r0, r31
    36fe:	f0 ee       	ldi	r31, 0xE0	; 224
    3700:	cf 2e       	mov	r12, r31
    3702:	dd 24       	eor	r13, r13
    3704:	da 94       	dec	r13
    3706:	f0 2d       	mov	r31, r0
    3708:	8c 01       	movw	r16, r24
    370a:	20 ea       	ldi	r18, 0xA0	; 160
    370c:	30 e0       	ldi	r19, 0x00	; 0
    370e:	4b ee       	ldi	r20, 0xEB	; 235
    3710:	50 e0       	ldi	r21, 0x00	; 0
    3712:	64 e8       	ldi	r22, 0x84	; 132
    3714:	70 e0       	ldi	r23, 0x00	; 0
    3716:	8a e0       	ldi	r24, 0x0A	; 10
    3718:	90 e0       	ldi	r25, 0x00	; 0
    371a:	0e 94 c9 13 	call	0x2792	; 0x2792 <PrintLCD>
		}
		
		if(privilegije==ADMIN){
    371e:	80 91 f9 01 	lds	r24, 0x01F9
    3722:	90 91 fa 01 	lds	r25, 0x01FA
    3726:	01 97       	sbiw	r24, 0x01	; 1
    3728:	09 f0       	breq	.+2      	; 0x372c <ShowInfoScreen+0x5f0>
    372a:	b9 c1       	rjmp	.+882    	; 0x3a9e <ShowInfoScreen+0x962>
			PrintLCD(10,160,235,205 ,"OIB", ALINE_CENTER,WHITE,1);
    372c:	aa 24       	eor	r10, r10
    372e:	a3 94       	inc	r10
    3730:	cc 24       	eor	r12, r12
    3732:	ca 94       	dec	r12
    3734:	dc 2c       	mov	r13, r12
    3736:	ee 24       	eor	r14, r14
    3738:	e3 94       	inc	r14
    373a:	06 e7       	ldi	r16, 0x76	; 118
    373c:	11 e0       	ldi	r17, 0x01	; 1
    373e:	2d ec       	ldi	r18, 0xCD	; 205
    3740:	30 e0       	ldi	r19, 0x00	; 0
    3742:	4b ee       	ldi	r20, 0xEB	; 235
    3744:	50 e0       	ldi	r21, 0x00	; 0
    3746:	60 ea       	ldi	r22, 0xA0	; 160
    3748:	70 e0       	ldi	r23, 0x00	; 0
    374a:	8a e0       	ldi	r24, 0x0A	; 10
    374c:	90 e0       	ldi	r25, 0x00	; 0
    374e:	0e 94 c9 13 	call	0x2792	; 0x2792 <PrintLCD>
			Rectangle(5,200,235,235);
    3752:	2b ee       	ldi	r18, 0xEB	; 235
    3754:	30 e0       	ldi	r19, 0x00	; 0
    3756:	4b ee       	ldi	r20, 0xEB	; 235
    3758:	50 e0       	ldi	r21, 0x00	; 0
    375a:	68 ec       	ldi	r22, 0xC8	; 200
    375c:	70 e0       	ldi	r23, 0x00	; 0
    375e:	85 e0       	ldi	r24, 0x05	; 5
    3760:	90 e0       	ldi	r25, 0x00	; 0
    3762:	0e 94 87 11 	call	0x230e	; 0x230e <Rectangle>
			PrintLCD(10,202,235,230, korisnik.oib, ALINE_CENTER, YELLOW, 1);
    3766:	00 91 11 02 	lds	r16, 0x0211
    376a:	10 91 12 02 	lds	r17, 0x0212
    376e:	0f 2e       	mov	r0, r31
    3770:	f0 ee       	ldi	r31, 0xE0	; 224
    3772:	cf 2e       	mov	r12, r31
    3774:	dd 24       	eor	r13, r13
    3776:	da 94       	dec	r13
    3778:	f0 2d       	mov	r31, r0
    377a:	26 ee       	ldi	r18, 0xE6	; 230
    377c:	30 e0       	ldi	r19, 0x00	; 0
    377e:	4b ee       	ldi	r20, 0xEB	; 235
    3780:	50 e0       	ldi	r21, 0x00	; 0
    3782:	6a ec       	ldi	r22, 0xCA	; 202
    3784:	70 e0       	ldi	r23, 0x00	; 0
    3786:	8a e0       	ldi	r24, 0x0A	; 10
    3788:	90 e0       	ldi	r25, 0x00	; 0
    378a:	0e 94 c9 13 	call	0x2792	; 0x2792 <PrintLCD>
		}
		
		if(privilegije==ADMIN){
    378e:	80 91 f9 01 	lds	r24, 0x01F9
    3792:	90 91 fa 01 	lds	r25, 0x01FA
    3796:	01 97       	sbiw	r24, 0x01	; 1
    3798:	09 f0       	breq	.+2      	; 0x379c <ShowInfoScreen+0x660>
    379a:	81 c1       	rjmp	.+770    	; 0x3a9e <ShowInfoScreen+0x962>
			PrintLCD(10,230,235,275 ,"Datum rodenja", ALINE_CENTER,WHITE,1);
    379c:	cc 24       	eor	r12, r12
    379e:	ca 94       	dec	r12
    37a0:	dc 2c       	mov	r13, r12
    37a2:	0a e7       	ldi	r16, 0x7A	; 122
    37a4:	11 e0       	ldi	r17, 0x01	; 1
    37a6:	23 e1       	ldi	r18, 0x13	; 19
    37a8:	31 e0       	ldi	r19, 0x01	; 1
    37aa:	4b ee       	ldi	r20, 0xEB	; 235
    37ac:	50 e0       	ldi	r21, 0x00	; 0
    37ae:	66 ee       	ldi	r22, 0xE6	; 230
    37b0:	70 e0       	ldi	r23, 0x00	; 0
    37b2:	8a e0       	ldi	r24, 0x0A	; 10
    37b4:	90 e0       	ldi	r25, 0x00	; 0
    37b6:	0e 94 c9 13 	call	0x2792	; 0x2792 <PrintLCD>
			Rectangle(5,270,235,305);
    37ba:	21 e3       	ldi	r18, 0x31	; 49
    37bc:	31 e0       	ldi	r19, 0x01	; 1
    37be:	4b ee       	ldi	r20, 0xEB	; 235
    37c0:	50 e0       	ldi	r21, 0x00	; 0
    37c2:	6e e0       	ldi	r22, 0x0E	; 14
    37c4:	71 e0       	ldi	r23, 0x01	; 1
    37c6:	85 e0       	ldi	r24, 0x05	; 5
    37c8:	90 e0       	ldi	r25, 0x00	; 0
    37ca:	0e 94 87 11 	call	0x230e	; 0x230e <Rectangle>
			PrintLCD(10,272,235,300, korisnik.datumRodenja, ALINE_CENTER, YELLOW, 1);
    37ce:	00 91 1b 02 	lds	r16, 0x021B
    37d2:	10 91 1c 02 	lds	r17, 0x021C
    37d6:	0f 2e       	mov	r0, r31
    37d8:	f0 ee       	ldi	r31, 0xE0	; 224
    37da:	cf 2e       	mov	r12, r31
    37dc:	dd 24       	eor	r13, r13
    37de:	da 94       	dec	r13
    37e0:	f0 2d       	mov	r31, r0
    37e2:	2c e2       	ldi	r18, 0x2C	; 44
    37e4:	31 e0       	ldi	r19, 0x01	; 1
    37e6:	4b ee       	ldi	r20, 0xEB	; 235
    37e8:	50 e0       	ldi	r21, 0x00	; 0
    37ea:	60 e1       	ldi	r22, 0x10	; 16
    37ec:	71 e0       	ldi	r23, 0x01	; 1
    37ee:	8a e0       	ldi	r24, 0x0A	; 10
    37f0:	90 e0       	ldi	r25, 0x00	; 0
    37f2:	0e 94 c9 13 	call	0x2792	; 0x2792 <PrintLCD>
    37f6:	53 c1       	rjmp	.+678    	; 0x3a9e <ShowInfoScreen+0x962>
		}
		break;
		
		case DOPUNSKO:
		Line(1,25,239,25);
    37f8:	29 e1       	ldi	r18, 0x19	; 25
    37fa:	30 e0       	ldi	r19, 0x00	; 0
    37fc:	4f ee       	ldi	r20, 0xEF	; 239
    37fe:	50 e0       	ldi	r21, 0x00	; 0
    3800:	69 e1       	ldi	r22, 0x19	; 25
    3802:	70 e0       	ldi	r23, 0x00	; 0
    3804:	81 e0       	ldi	r24, 0x01	; 1
    3806:	90 e0       	ldi	r25, 0x00	; 0
    3808:	0e 94 74 10 	call	0x20e8	; 0x20e8 <Line>
		Line(1,26,239,26);
    380c:	2a e1       	ldi	r18, 0x1A	; 26
    380e:	30 e0       	ldi	r19, 0x00	; 0
    3810:	4f ee       	ldi	r20, 0xEF	; 239
    3812:	50 e0       	ldi	r21, 0x00	; 0
    3814:	6a e1       	ldi	r22, 0x1A	; 26
    3816:	70 e0       	ldi	r23, 0x00	; 0
    3818:	81 e0       	ldi	r24, 0x01	; 1
    381a:	90 e0       	ldi	r25, 0x00	; 0
    381c:	0e 94 74 10 	call	0x20e8	; 0x20e8 <Line>
		PrintLCD(5,0,235,22, "HZZO Dopunsko", ALINE_CENTER, ORANGE, 1);
    3820:	aa 24       	eor	r10, r10
    3822:	a3 94       	inc	r10
    3824:	0f 2e       	mov	r0, r31
    3826:	f5 ea       	ldi	r31, 0xA5	; 165
    3828:	cf 2e       	mov	r12, r31
    382a:	f3 ee       	ldi	r31, 0xE3	; 227
    382c:	df 2e       	mov	r13, r31
    382e:	f0 2d       	mov	r31, r0
    3830:	ee 24       	eor	r14, r14
    3832:	e3 94       	inc	r14
    3834:	0c e0       	ldi	r16, 0x0C	; 12
    3836:	11 e0       	ldi	r17, 0x01	; 1
    3838:	26 e1       	ldi	r18, 0x16	; 22
    383a:	30 e0       	ldi	r19, 0x00	; 0
    383c:	4b ee       	ldi	r20, 0xEB	; 235
    383e:	50 e0       	ldi	r21, 0x00	; 0
    3840:	60 e0       	ldi	r22, 0x00	; 0
    3842:	70 e0       	ldi	r23, 0x00	; 0
    3844:	85 e0       	ldi	r24, 0x05	; 5
    3846:	90 e0       	ldi	r25, 0x00	; 0
    3848:	0e 94 c9 13 	call	0x2792	; 0x2792 <PrintLCD>
		//PrintLCD(15,0,230,22, "BACK", ALINE_RIGHT, LIGHTBLUE,1);
		strcpy(txt,korisnik.ime);
    384c:	60 91 fb 01 	lds	r22, 0x01FB
    3850:	70 91 fc 01 	lds	r23, 0x01FC
    3854:	88 24       	eor	r8, r8
    3856:	83 94       	inc	r8
    3858:	91 2c       	mov	r9, r1
    385a:	8c 0e       	add	r8, r28
    385c:	9d 1e       	adc	r9, r29
    385e:	c4 01       	movw	r24, r8
    3860:	0e 94 74 22 	call	0x44e8	; 0x44e8 <strcpy>
		strcat(txt," ");
    3864:	f4 01       	movw	r30, r8
    3866:	01 90       	ld	r0, Z+
    3868:	00 20       	and	r0, r0
    386a:	e9 f7       	brne	.-6      	; 0x3866 <ShowInfoScreen+0x72a>
    386c:	31 97       	sbiw	r30, 0x01	; 1
    386e:	80 e2       	ldi	r24, 0x20	; 32
    3870:	90 e0       	ldi	r25, 0x00	; 0
    3872:	91 83       	std	Z+1, r25	; 0x01
    3874:	80 83       	st	Z, r24
		PrintLCD(10,20,235,65 ,"Ime i prezime", ALINE_CENTER,WHITE,1);
    3876:	cc 24       	eor	r12, r12
    3878:	ca 94       	dec	r12
    387a:	dc 2c       	mov	r13, r12
    387c:	04 e2       	ldi	r16, 0x24	; 36
    387e:	11 e0       	ldi	r17, 0x01	; 1
    3880:	21 e4       	ldi	r18, 0x41	; 65
    3882:	30 e0       	ldi	r19, 0x00	; 0
    3884:	4b ee       	ldi	r20, 0xEB	; 235
    3886:	50 e0       	ldi	r21, 0x00	; 0
    3888:	64 e1       	ldi	r22, 0x14	; 20
    388a:	70 e0       	ldi	r23, 0x00	; 0
    388c:	8a e0       	ldi	r24, 0x0A	; 10
    388e:	90 e0       	ldi	r25, 0x00	; 0
    3890:	0e 94 c9 13 	call	0x2792	; 0x2792 <PrintLCD>
		Rectangle(5,60,235,95);
    3894:	2f e5       	ldi	r18, 0x5F	; 95
    3896:	30 e0       	ldi	r19, 0x00	; 0
    3898:	4b ee       	ldi	r20, 0xEB	; 235
    389a:	50 e0       	ldi	r21, 0x00	; 0
    389c:	6c e3       	ldi	r22, 0x3C	; 60
    389e:	70 e0       	ldi	r23, 0x00	; 0
    38a0:	85 e0       	ldi	r24, 0x05	; 5
    38a2:	90 e0       	ldi	r25, 0x00	; 0
    38a4:	0e 94 87 11 	call	0x230e	; 0x230e <Rectangle>
		PrintLCD(10,62,235,90, strcat(txt,korisnik.prezime), ALINE_CENTER, YELLOW, 1);
    38a8:	60 91 fd 01 	lds	r22, 0x01FD
    38ac:	70 91 fe 01 	lds	r23, 0x01FE
    38b0:	c4 01       	movw	r24, r8
    38b2:	0e 94 60 22 	call	0x44c0	; 0x44c0 <strcat>
    38b6:	0f 2e       	mov	r0, r31
    38b8:	f0 ee       	ldi	r31, 0xE0	; 224
    38ba:	cf 2e       	mov	r12, r31
    38bc:	dd 24       	eor	r13, r13
    38be:	da 94       	dec	r13
    38c0:	f0 2d       	mov	r31, r0
    38c2:	8c 01       	movw	r16, r24
    38c4:	2a e5       	ldi	r18, 0x5A	; 90
    38c6:	30 e0       	ldi	r19, 0x00	; 0
    38c8:	4b ee       	ldi	r20, 0xEB	; 235
    38ca:	50 e0       	ldi	r21, 0x00	; 0
    38cc:	6e e3       	ldi	r22, 0x3E	; 62
    38ce:	70 e0       	ldi	r23, 0x00	; 0
    38d0:	8a e0       	ldi	r24, 0x0A	; 10
    38d2:	90 e0       	ldi	r25, 0x00	; 0
    38d4:	0e 94 c9 13 	call	0x2792	; 0x2792 <PrintLCD>
		
		if(privilegije==ADMIN || privilegije==MODERATOR ){
    38d8:	80 91 f9 01 	lds	r24, 0x01F9
    38dc:	90 91 fa 01 	lds	r25, 0x01FA
    38e0:	01 97       	sbiw	r24, 0x01	; 1
    38e2:	02 97       	sbiw	r24, 0x02	; 2
    38e4:	68 f5       	brcc	.+90     	; 0x3940 <ShowInfoScreen+0x804>
			
			PrintLCD(10,90,235,135 ,"OIB", ALINE_CENTER,WHITE,1);
    38e6:	cc 24       	eor	r12, r12
    38e8:	ca 94       	dec	r12
    38ea:	dc 2c       	mov	r13, r12
    38ec:	06 e7       	ldi	r16, 0x76	; 118
    38ee:	11 e0       	ldi	r17, 0x01	; 1
    38f0:	27 e8       	ldi	r18, 0x87	; 135
    38f2:	30 e0       	ldi	r19, 0x00	; 0
    38f4:	4b ee       	ldi	r20, 0xEB	; 235
    38f6:	50 e0       	ldi	r21, 0x00	; 0
    38f8:	6a e5       	ldi	r22, 0x5A	; 90
    38fa:	70 e0       	ldi	r23, 0x00	; 0
    38fc:	8a e0       	ldi	r24, 0x0A	; 10
    38fe:	90 e0       	ldi	r25, 0x00	; 0
    3900:	0e 94 c9 13 	call	0x2792	; 0x2792 <PrintLCD>
			Rectangle(5,130,235,165);
    3904:	25 ea       	ldi	r18, 0xA5	; 165
    3906:	30 e0       	ldi	r19, 0x00	; 0
    3908:	4b ee       	ldi	r20, 0xEB	; 235
    390a:	50 e0       	ldi	r21, 0x00	; 0
    390c:	62 e8       	ldi	r22, 0x82	; 130
    390e:	70 e0       	ldi	r23, 0x00	; 0
    3910:	85 e0       	ldi	r24, 0x05	; 5
    3912:	90 e0       	ldi	r25, 0x00	; 0
    3914:	0e 94 87 11 	call	0x230e	; 0x230e <Rectangle>
			PrintLCD(10,132,235,160, korisnik.oib, ALINE_CENTER, YELLOW, 1);
    3918:	00 91 11 02 	lds	r16, 0x0211
    391c:	10 91 12 02 	lds	r17, 0x0212
    3920:	0f 2e       	mov	r0, r31
    3922:	f0 ee       	ldi	r31, 0xE0	; 224
    3924:	cf 2e       	mov	r12, r31
    3926:	dd 24       	eor	r13, r13
    3928:	da 94       	dec	r13
    392a:	f0 2d       	mov	r31, r0
    392c:	20 ea       	ldi	r18, 0xA0	; 160
    392e:	30 e0       	ldi	r19, 0x00	; 0
    3930:	4b ee       	ldi	r20, 0xEB	; 235
    3932:	50 e0       	ldi	r21, 0x00	; 0
    3934:	64 e8       	ldi	r22, 0x84	; 132
    3936:	70 e0       	ldi	r23, 0x00	; 0
    3938:	8a e0       	ldi	r24, 0x0A	; 10
    393a:	90 e0       	ldi	r25, 0x00	; 0
    393c:	0e 94 c9 13 	call	0x2792	; 0x2792 <PrintLCD>
		}
		
		if(privilegije==ADMIN){
    3940:	80 91 f9 01 	lds	r24, 0x01F9
    3944:	90 91 fa 01 	lds	r25, 0x01FA
    3948:	01 97       	sbiw	r24, 0x01	; 1
    394a:	09 f0       	breq	.+2      	; 0x394e <ShowInfoScreen+0x812>
    394c:	a8 c0       	rjmp	.+336    	; 0x3a9e <ShowInfoScreen+0x962>
			
			PrintLCD(5,160,115,205 ,"Sifra police", ALINE_CENTER,WHITE,1);
    394e:	aa 24       	eor	r10, r10
    3950:	a3 94       	inc	r10
    3952:	cc 24       	eor	r12, r12
    3954:	ca 94       	dec	r12
    3956:	dc 2c       	mov	r13, r12
    3958:	ee 24       	eor	r14, r14
    395a:	e3 94       	inc	r14
    395c:	08 e8       	ldi	r16, 0x88	; 136
    395e:	11 e0       	ldi	r17, 0x01	; 1
    3960:	2d ec       	ldi	r18, 0xCD	; 205
    3962:	30 e0       	ldi	r19, 0x00	; 0
    3964:	43 e7       	ldi	r20, 0x73	; 115
    3966:	50 e0       	ldi	r21, 0x00	; 0
    3968:	60 ea       	ldi	r22, 0xA0	; 160
    396a:	70 e0       	ldi	r23, 0x00	; 0
    396c:	85 e0       	ldi	r24, 0x05	; 5
    396e:	90 e0       	ldi	r25, 0x00	; 0
    3970:	0e 94 c9 13 	call	0x2792	; 0x2792 <PrintLCD>
			Rectangle(5,200,115,235);
    3974:	2b ee       	ldi	r18, 0xEB	; 235
    3976:	30 e0       	ldi	r19, 0x00	; 0
    3978:	43 e7       	ldi	r20, 0x73	; 115
    397a:	50 e0       	ldi	r21, 0x00	; 0
    397c:	68 ec       	ldi	r22, 0xC8	; 200
    397e:	70 e0       	ldi	r23, 0x00	; 0
    3980:	85 e0       	ldi	r24, 0x05	; 5
    3982:	90 e0       	ldi	r25, 0x00	; 0
    3984:	0e 94 87 11 	call	0x230e	; 0x230e <Rectangle>
			PrintLCD(10,202,115,230, korisnik.sifraPolice, ALINE_CENTER, YELLOW, 1);
    3988:	00 91 13 02 	lds	r16, 0x0213
    398c:	10 91 14 02 	lds	r17, 0x0214
    3990:	0f 2e       	mov	r0, r31
    3992:	f0 ee       	ldi	r31, 0xE0	; 224
    3994:	cf 2e       	mov	r12, r31
    3996:	dd 24       	eor	r13, r13
    3998:	da 94       	dec	r13
    399a:	f0 2d       	mov	r31, r0
    399c:	26 ee       	ldi	r18, 0xE6	; 230
    399e:	30 e0       	ldi	r19, 0x00	; 0
    39a0:	43 e7       	ldi	r20, 0x73	; 115
    39a2:	50 e0       	ldi	r21, 0x00	; 0
    39a4:	6a ec       	ldi	r22, 0xCA	; 202
    39a6:	70 e0       	ldi	r23, 0x00	; 0
    39a8:	8a e0       	ldi	r24, 0x0A	; 10
    39aa:	90 e0       	ldi	r25, 0x00	; 0
    39ac:	0e 94 c9 13 	call	0x2792	; 0x2792 <PrintLCD>
			
			PrintLCD(120,160,235,205 ,"Br. iskaznice", ALINE_CENTER,WHITE,1);
    39b0:	cc 24       	eor	r12, r12
    39b2:	ca 94       	dec	r12
    39b4:	dc 2c       	mov	r13, r12
    39b6:	05 e9       	ldi	r16, 0x95	; 149
    39b8:	11 e0       	ldi	r17, 0x01	; 1
    39ba:	2d ec       	ldi	r18, 0xCD	; 205
    39bc:	30 e0       	ldi	r19, 0x00	; 0
    39be:	4b ee       	ldi	r20, 0xEB	; 235
    39c0:	50 e0       	ldi	r21, 0x00	; 0
    39c2:	60 ea       	ldi	r22, 0xA0	; 160
    39c4:	70 e0       	ldi	r23, 0x00	; 0
    39c6:	88 e7       	ldi	r24, 0x78	; 120
    39c8:	90 e0       	ldi	r25, 0x00	; 0
    39ca:	0e 94 c9 13 	call	0x2792	; 0x2792 <PrintLCD>
			Rectangle(120,200,235,235);
    39ce:	2b ee       	ldi	r18, 0xEB	; 235
    39d0:	30 e0       	ldi	r19, 0x00	; 0
    39d2:	4b ee       	ldi	r20, 0xEB	; 235
    39d4:	50 e0       	ldi	r21, 0x00	; 0
    39d6:	68 ec       	ldi	r22, 0xC8	; 200
    39d8:	70 e0       	ldi	r23, 0x00	; 0
    39da:	88 e7       	ldi	r24, 0x78	; 120
    39dc:	90 e0       	ldi	r25, 0x00	; 0
    39de:	0e 94 87 11 	call	0x230e	; 0x230e <Rectangle>
			PrintLCD(122,202,235,230, korisnik.brojIskaznice, ALINE_CENTER, YELLOW, 1);
    39e2:	00 91 19 02 	lds	r16, 0x0219
    39e6:	10 91 1a 02 	lds	r17, 0x021A
    39ea:	0f 2e       	mov	r0, r31
    39ec:	f0 ee       	ldi	r31, 0xE0	; 224
    39ee:	cf 2e       	mov	r12, r31
    39f0:	dd 24       	eor	r13, r13
    39f2:	da 94       	dec	r13
    39f4:	f0 2d       	mov	r31, r0
    39f6:	26 ee       	ldi	r18, 0xE6	; 230
    39f8:	30 e0       	ldi	r19, 0x00	; 0
    39fa:	4b ee       	ldi	r20, 0xEB	; 235
    39fc:	50 e0       	ldi	r21, 0x00	; 0
    39fe:	6a ec       	ldi	r22, 0xCA	; 202
    3a00:	70 e0       	ldi	r23, 0x00	; 0
    3a02:	8a e7       	ldi	r24, 0x7A	; 122
    3a04:	90 e0       	ldi	r25, 0x00	; 0
    3a06:	0e 94 c9 13 	call	0x2792	; 0x2792 <PrintLCD>
		}
		
		if(privilegije==ADMIN){
    3a0a:	80 91 f9 01 	lds	r24, 0x01F9
    3a0e:	90 91 fa 01 	lds	r25, 0x01FA
    3a12:	01 97       	sbiw	r24, 0x01	; 1
    3a14:	09 f0       	breq	.+2      	; 0x3a18 <ShowInfoScreen+0x8dc>
    3a16:	43 c0       	rjmp	.+134    	; 0x3a9e <ShowInfoScreen+0x962>
			
			PrintLCD(5,230,235,275 ,"Vrijedi od", ALINE_CENTER,WHITE,1);
    3a18:	cc 24       	eor	r12, r12
    3a1a:	ca 94       	dec	r12
    3a1c:	dc 2c       	mov	r13, r12
    3a1e:	03 ea       	ldi	r16, 0xA3	; 163
    3a20:	11 e0       	ldi	r17, 0x01	; 1
    3a22:	23 e1       	ldi	r18, 0x13	; 19
    3a24:	31 e0       	ldi	r19, 0x01	; 1
    3a26:	4b ee       	ldi	r20, 0xEB	; 235
    3a28:	50 e0       	ldi	r21, 0x00	; 0
    3a2a:	66 ee       	ldi	r22, 0xE6	; 230
    3a2c:	70 e0       	ldi	r23, 0x00	; 0
    3a2e:	85 e0       	ldi	r24, 0x05	; 5
    3a30:	90 e0       	ldi	r25, 0x00	; 0
    3a32:	0e 94 c9 13 	call	0x2792	; 0x2792 <PrintLCD>
			Rectangle(5,270,235,305);
    3a36:	21 e3       	ldi	r18, 0x31	; 49
    3a38:	31 e0       	ldi	r19, 0x01	; 1
    3a3a:	4b ee       	ldi	r20, 0xEB	; 235
    3a3c:	50 e0       	ldi	r21, 0x00	; 0
    3a3e:	6e e0       	ldi	r22, 0x0E	; 14
    3a40:	71 e0       	ldi	r23, 0x01	; 1
    3a42:	85 e0       	ldi	r24, 0x05	; 5
    3a44:	90 e0       	ldi	r25, 0x00	; 0
    3a46:	0e 94 87 11 	call	0x230e	; 0x230e <Rectangle>
			PrintLCD(10,272,235,300, korisnik.vrijediOd, ALINE_CENTER, YELLOW, 1);
    3a4a:	00 91 15 02 	lds	r16, 0x0215
    3a4e:	10 91 16 02 	lds	r17, 0x0216
    3a52:	0f 2e       	mov	r0, r31
    3a54:	f0 ee       	ldi	r31, 0xE0	; 224
    3a56:	cf 2e       	mov	r12, r31
    3a58:	dd 24       	eor	r13, r13
    3a5a:	da 94       	dec	r13
    3a5c:	f0 2d       	mov	r31, r0
    3a5e:	2c e2       	ldi	r18, 0x2C	; 44
    3a60:	31 e0       	ldi	r19, 0x01	; 1
    3a62:	4b ee       	ldi	r20, 0xEB	; 235
    3a64:	50 e0       	ldi	r21, 0x00	; 0
    3a66:	60 e1       	ldi	r22, 0x10	; 16
    3a68:	71 e0       	ldi	r23, 0x01	; 1
    3a6a:	8a e0       	ldi	r24, 0x0A	; 10
    3a6c:	90 e0       	ldi	r25, 0x00	; 0
    3a6e:	0e 94 c9 13 	call	0x2792	; 0x2792 <PrintLCD>
    3a72:	15 c0       	rjmp	.+42     	; 0x3a9e <ShowInfoScreen+0x962>
		}
		break;
		
		default:
		PrintLCD(5,20,235,22, "Nepodrzana kartica!", ALINE_CENTER, RED, 1);
    3a74:	aa 24       	eor	r10, r10
    3a76:	a3 94       	inc	r10
    3a78:	0f 2e       	mov	r0, r31
    3a7a:	c1 2c       	mov	r12, r1
    3a7c:	f8 ef       	ldi	r31, 0xF8	; 248
    3a7e:	df 2e       	mov	r13, r31
    3a80:	f0 2d       	mov	r31, r0
    3a82:	ee 24       	eor	r14, r14
    3a84:	e3 94       	inc	r14
    3a86:	0e ea       	ldi	r16, 0xAE	; 174
    3a88:	11 e0       	ldi	r17, 0x01	; 1
    3a8a:	26 e1       	ldi	r18, 0x16	; 22
    3a8c:	30 e0       	ldi	r19, 0x00	; 0
    3a8e:	4b ee       	ldi	r20, 0xEB	; 235
    3a90:	50 e0       	ldi	r21, 0x00	; 0
    3a92:	64 e1       	ldi	r22, 0x14	; 20
    3a94:	70 e0       	ldi	r23, 0x00	; 0
    3a96:	85 e0       	ldi	r24, 0x05	; 5
    3a98:	90 e0       	ldi	r25, 0x00	; 0
    3a9a:	0e 94 c9 13 	call	0x2792	; 0x2792 <PrintLCD>
		//PrintLCD(8,280,235,305 , "BACK", ALINE_CENTER, LIGHTBLUE,1);
		break;
	}
	
}
    3a9e:	64 96       	adiw	r28, 0x14	; 20
    3aa0:	0f b6       	in	r0, 0x3f	; 63
    3aa2:	f8 94       	cli
    3aa4:	de bf       	out	0x3e, r29	; 62
    3aa6:	0f be       	out	0x3f, r0	; 63
    3aa8:	cd bf       	out	0x3d, r28	; 61
    3aaa:	df 91       	pop	r29
    3aac:	cf 91       	pop	r28
    3aae:	1f 91       	pop	r17
    3ab0:	0f 91       	pop	r16
    3ab2:	ef 90       	pop	r14
    3ab4:	df 90       	pop	r13
    3ab6:	cf 90       	pop	r12
    3ab8:	af 90       	pop	r10
    3aba:	9f 90       	pop	r9
    3abc:	8f 90       	pop	r8
    3abe:	08 95       	ret

00003ac0 <ClearAndShowNewScreen>:
@brief Funkcija koja oisti ekran te poziva razliite screenove.
@param screen - screen koji elimo prikazati
@param status - opcionalna vrijednost za uspjenost
@return error - uspjenost (-1 za neuspjeh, 0 za uspjeh)
*/
int ClearAndShowNewScreen(int screen, int status) {
    3ac0:	cf 93       	push	r28
    3ac2:	df 93       	push	r29
    3ac4:	ec 01       	movw	r28, r24
	
	LCD_Clear(BLACK);
    3ac6:	80 e0       	ldi	r24, 0x00	; 0
    3ac8:	90 e0       	ldi	r25, 0x00	; 0
    3aca:	0e 94 5c 20 	call	0x40b8	; 0x40b8 <LCD_Clear>
	
	int error, brojZnakova;

	switch(screen) {
    3ace:	c2 30       	cpi	r28, 0x02	; 2
    3ad0:	d1 05       	cpc	r29, r1
    3ad2:	79 f0       	breq	.+30     	; 0x3af2 <ClearAndShowNewScreen+0x32>
    3ad4:	1c f4       	brge	.+6      	; 0x3adc <ClearAndShowNewScreen+0x1c>
    3ad6:	21 97       	sbiw	r28, 0x01	; 1
    3ad8:	e1 f4       	brne	.+56     	; 0x3b12 <ClearAndShowNewScreen+0x52>
    3ada:	06 c0       	rjmp	.+12     	; 0x3ae8 <ClearAndShowNewScreen+0x28>
    3adc:	c3 30       	cpi	r28, 0x03	; 3
    3ade:	d1 05       	cpc	r29, r1
    3ae0:	71 f0       	breq	.+28     	; 0x3afe <ClearAndShowNewScreen+0x3e>
    3ae2:	24 97       	sbiw	r28, 0x04	; 4
    3ae4:	b1 f4       	brne	.+44     	; 0x3b12 <ClearAndShowNewScreen+0x52>
    3ae6:	10 c0       	rjmp	.+32     	; 0x3b08 <ClearAndShowNewScreen+0x48>

		case WELCOME:

		ShowWelcomeScreen();
    3ae8:	0e 94 9d 15 	call	0x2b3a	; 0x2b3a <ShowWelcomeScreen>

		return 0;
    3aec:	20 e0       	ldi	r18, 0x00	; 0
    3aee:	30 e0       	ldi	r19, 0x00	; 0
    3af0:	12 c0       	rjmp	.+36     	; 0x3b16 <ClearAndShowNewScreen+0x56>

		case LOGIN:

		brojZnakova = LoginXicom();
    3af2:	0e 94 26 16 	call	0x2c4c	; 0x2c4c <LoginXicom>
		
		error = ShowLoginScreen(brojZnakova);
    3af6:	0e 94 c6 16 	call	0x2d8c	; 0x2d8c <ShowLoginScreen>
    3afa:	9c 01       	movw	r18, r24
		
		return error;
    3afc:	0c c0       	rjmp	.+24     	; 0x3b16 <ClearAndShowNewScreen+0x56>

		case CARD:
		
		ShowCardScreen();
    3afe:	0e 94 58 17 	call	0x2eb0	; 0x2eb0 <ShowCardScreen>
		return 0;
    3b02:	20 e0       	ldi	r18, 0x00	; 0
    3b04:	30 e0       	ldi	r19, 0x00	; 0
    3b06:	07 c0       	rjmp	.+14     	; 0x3b16 <ClearAndShowNewScreen+0x56>
		
		case INFO:
		
		ShowInfoScreen();
    3b08:	0e 94 9e 18 	call	0x313c	; 0x313c <ShowInfoScreen>
		return 0;
    3b0c:	20 e0       	ldi	r18, 0x00	; 0
    3b0e:	30 e0       	ldi	r19, 0x00	; 0
    3b10:	02 c0       	rjmp	.+4      	; 0x3b16 <ClearAndShowNewScreen+0x56>

		default:
		return -1;
    3b12:	2f ef       	ldi	r18, 0xFF	; 255
    3b14:	3f ef       	ldi	r19, 0xFF	; 255
	}

}
    3b16:	82 2f       	mov	r24, r18
    3b18:	93 2f       	mov	r25, r19
    3b1a:	df 91       	pop	r29
    3b1c:	cf 91       	pop	r28
    3b1e:	08 95       	ret

00003b20 <forceHardReset>:
/**
@brief Funkcija za Hard Reset pomou Watchdog timera.
*/
void forceHardReset()
{
	cli(); // disable interrupts
    3b20:	f8 94       	cli
	wdt_enable(WDTO_15MS); // enable watchdog
    3b22:	28 e0       	ldi	r18, 0x08	; 8
    3b24:	88 e1       	ldi	r24, 0x18	; 24
    3b26:	90 e0       	ldi	r25, 0x00	; 0
    3b28:	0f b6       	in	r0, 0x3f	; 63
    3b2a:	f8 94       	cli
    3b2c:	a8 95       	wdr
    3b2e:	80 93 41 00 	sts	0x0041, r24
    3b32:	0f be       	out	0x3f, r0	; 63
    3b34:	20 93 41 00 	sts	0x0041, r18
    3b38:	ff cf       	rjmp	.-2      	; 0x3b38 <forceHardReset+0x18>

00003b3a <main>:
/**
@brief Main funkcija - izvoenje programa.
*/
int main() {
	
	Init();
    3b3a:	0e 94 a8 13 	call	0x2750	; 0x2750 <Init>
	int status;
	RESETIRAN=read_eeprom_word(&my_eeprom_word);
    3b3e:	80 e0       	ldi	r24, 0x00	; 0
    3b40:	90 e0       	ldi	r25, 0x00	; 0
    3b42:	0e 94 a2 22 	call	0x4544	; 0x4544 <__eerd_word_m32a>
    3b46:	28 2f       	mov	r18, r24
    3b48:	39 2f       	mov	r19, r25
    3b4a:	30 93 f2 01 	sts	0x01F2, r19
    3b4e:	20 93 f1 01 	sts	0x01F1, r18
	
	if(RESETIRAN==0)
    3b52:	23 2b       	or	r18, r19
    3b54:	09 f0       	breq	.+2      	; 0x3b58 <main+0x1e>
    3b56:	5c c0       	rjmp	.+184    	; 0x3c10 <main+0xd6>
	{
		ClearAndShowNewScreen(WELCOME, 0);
    3b58:	60 e0       	ldi	r22, 0x00	; 0
    3b5a:	70 e0       	ldi	r23, 0x00	; 0
    3b5c:	81 e0       	ldi	r24, 0x01	; 1
    3b5e:	90 e0       	ldi	r25, 0x00	; 0
    3b60:	0e 94 60 1d 	call	0x3ac0	; 0x3ac0 <ClearAndShowNewScreen>
    3b64:	2f ef       	ldi	r18, 0xFF	; 255
    3b66:	83 ed       	ldi	r24, 0xD3	; 211
    3b68:	90 e3       	ldi	r25, 0x30	; 48
    3b6a:	21 50       	subi	r18, 0x01	; 1
    3b6c:	80 40       	sbci	r24, 0x00	; 0
    3b6e:	90 40       	sbci	r25, 0x00	; 0
    3b70:	e1 f7       	brne	.-8      	; 0x3b6a <main+0x30>
    3b72:	00 c0       	rjmp	.+0      	; 0x3b74 <main+0x3a>
    3b74:	00 00       	nop
		_delay_ms(2000);
		
		DeklarirajNaNulu(korisnik);
    3b76:	8d b7       	in	r24, 0x3d	; 61
    3b78:	9e b7       	in	r25, 0x3e	; 62
    3b7a:	84 97       	sbiw	r24, 0x24	; 36
    3b7c:	0f b6       	in	r0, 0x3f	; 63
    3b7e:	f8 94       	cli
    3b80:	9e bf       	out	0x3e, r25	; 62
    3b82:	0f be       	out	0x3f, r0	; 63
    3b84:	8d bf       	out	0x3d, r24	; 61
    3b86:	ad b7       	in	r26, 0x3d	; 61
    3b88:	be b7       	in	r27, 0x3e	; 62
    3b8a:	11 96       	adiw	r26, 0x01	; 1
    3b8c:	84 e2       	ldi	r24, 0x24	; 36
    3b8e:	eb ef       	ldi	r30, 0xFB	; 251
    3b90:	f1 e0       	ldi	r31, 0x01	; 1
    3b92:	01 90       	ld	r0, Z+
    3b94:	0d 92       	st	X+, r0
    3b96:	8a 95       	dec	r24
    3b98:	e1 f7       	brne	.-8      	; 0x3b92 <main+0x58>
    3b9a:	0e 94 54 15 	call	0x2aa8	; 0x2aa8 <DeklarirajNaNulu>
    3b9e:	8d b7       	in	r24, 0x3d	; 61
    3ba0:	9e b7       	in	r25, 0x3e	; 62
    3ba2:	84 96       	adiw	r24, 0x24	; 36
    3ba4:	0f b6       	in	r0, 0x3f	; 63
    3ba6:	f8 94       	cli
    3ba8:	9e bf       	out	0x3e, r25	; 62
    3baa:	0f be       	out	0x3f, r0	; 63
    3bac:	8d bf       	out	0x3d, r24	; 61
		
		do {
			status = ClearAndShowNewScreen(LOGIN, 0);
    3bae:	60 e0       	ldi	r22, 0x00	; 0
    3bb0:	70 e0       	ldi	r23, 0x00	; 0
    3bb2:	82 e0       	ldi	r24, 0x02	; 2
    3bb4:	90 e0       	ldi	r25, 0x00	; 0
    3bb6:	0e 94 60 1d 	call	0x3ac0	; 0x3ac0 <ClearAndShowNewScreen>
		} while (status != 1);
    3bba:	01 97       	sbiw	r24, 0x01	; 1
    3bbc:	c1 f7       	brne	.-16     	; 0x3bae <main+0x74>

		DohvatiPodatke(str, XICA);
    3bbe:	61 e0       	ldi	r22, 0x01	; 1
    3bc0:	70 e0       	ldi	r23, 0x00	; 0
    3bc2:	8f e1       	ldi	r24, 0x1F	; 31
    3bc4:	92 e0       	ldi	r25, 0x02	; 2
    3bc6:	0e 94 01 14 	call	0x2802	; 0x2802 <DohvatiPodatke>
		
		ClearAndShowNewScreen(CARD, 0);
    3bca:	60 e0       	ldi	r22, 0x00	; 0
    3bcc:	70 e0       	ldi	r23, 0x00	; 0
    3bce:	83 e0       	ldi	r24, 0x03	; 3
    3bd0:	90 e0       	ldi	r25, 0x00	; 0
    3bd2:	0e 94 60 1d 	call	0x3ac0	; 0x3ac0 <ClearAndShowNewScreen>
		
		ClearAndShowNewScreen(INFO, 0);
    3bd6:	60 e0       	ldi	r22, 0x00	; 0
    3bd8:	70 e0       	ldi	r23, 0x00	; 0
    3bda:	84 e0       	ldi	r24, 0x04	; 4
    3bdc:	90 e0       	ldi	r25, 0x00	; 0
    3bde:	0e 94 60 1d 	call	0x3ac0	; 0x3ac0 <ClearAndShowNewScreen>
    3be2:	9f ef       	ldi	r25, 0xFF	; 255
    3be4:	21 e1       	ldi	r18, 0x11	; 17
    3be6:	8a e7       	ldi	r24, 0x7A	; 122
    3be8:	91 50       	subi	r25, 0x01	; 1
    3bea:	20 40       	sbci	r18, 0x00	; 0
    3bec:	80 40       	sbci	r24, 0x00	; 0
    3bee:	e1 f7       	brne	.-8      	; 0x3be8 <main+0xae>
    3bf0:	00 c0       	rjmp	.+0      	; 0x3bf2 <main+0xb8>
    3bf2:	00 00       	nop
		
		_delay_ms(5000);
		
		RESETIRAN=1;
    3bf4:	81 e0       	ldi	r24, 0x01	; 1
    3bf6:	90 e0       	ldi	r25, 0x00	; 0
    3bf8:	90 93 f2 01 	sts	0x01F2, r25
    3bfc:	80 93 f1 01 	sts	0x01F1, r24
		write_eeprom_word(&my_eeprom_word,RESETIRAN);
    3c00:	61 e0       	ldi	r22, 0x01	; 1
    3c02:	70 e0       	ldi	r23, 0x00	; 0
    3c04:	80 e0       	ldi	r24, 0x00	; 0
    3c06:	90 e0       	ldi	r25, 0x00	; 0
    3c08:	0e 94 a8 22 	call	0x4550	; 0x4550 <__eewr_word_m32a>
		forceHardReset();
    3c0c:	0e 94 90 1d 	call	0x3b20	; 0x3b20 <forceHardReset>
		}else{
		DeklarirajNaNulu(korisnik);
    3c10:	8d b7       	in	r24, 0x3d	; 61
    3c12:	9e b7       	in	r25, 0x3e	; 62
    3c14:	84 97       	sbiw	r24, 0x24	; 36
    3c16:	0f b6       	in	r0, 0x3f	; 63
    3c18:	f8 94       	cli
    3c1a:	9e bf       	out	0x3e, r25	; 62
    3c1c:	0f be       	out	0x3f, r0	; 63
    3c1e:	8d bf       	out	0x3d, r24	; 61
    3c20:	ad b7       	in	r26, 0x3d	; 61
    3c22:	be b7       	in	r27, 0x3e	; 62
    3c24:	11 96       	adiw	r26, 0x01	; 1
    3c26:	84 e2       	ldi	r24, 0x24	; 36
    3c28:	eb ef       	ldi	r30, 0xFB	; 251
    3c2a:	f1 e0       	ldi	r31, 0x01	; 1
    3c2c:	01 90       	ld	r0, Z+
    3c2e:	0d 92       	st	X+, r0
    3c30:	8a 95       	dec	r24
    3c32:	e1 f7       	brne	.-8      	; 0x3c2c <main+0xf2>
    3c34:	0e 94 54 15 	call	0x2aa8	; 0x2aa8 <DeklarirajNaNulu>
    3c38:	8d b7       	in	r24, 0x3d	; 61
    3c3a:	9e b7       	in	r25, 0x3e	; 62
    3c3c:	84 96       	adiw	r24, 0x24	; 36
    3c3e:	0f b6       	in	r0, 0x3f	; 63
    3c40:	f8 94       	cli
    3c42:	9e bf       	out	0x3e, r25	; 62
    3c44:	0f be       	out	0x3f, r0	; 63
    3c46:	8d bf       	out	0x3d, r24	; 61
		
		while(1) {
			do {
				status = ClearAndShowNewScreen(LOGIN, 0);
    3c48:	60 e0       	ldi	r22, 0x00	; 0
    3c4a:	70 e0       	ldi	r23, 0x00	; 0
    3c4c:	82 e0       	ldi	r24, 0x02	; 2
    3c4e:	90 e0       	ldi	r25, 0x00	; 0
    3c50:	0e 94 60 1d 	call	0x3ac0	; 0x3ac0 <ClearAndShowNewScreen>
			} while (status != 1);
    3c54:	01 97       	sbiw	r24, 0x01	; 1
    3c56:	c1 f7       	brne	.-16     	; 0x3c48 <main+0x10e>

			DohvatiPodatke(str, XICA);
    3c58:	61 e0       	ldi	r22, 0x01	; 1
    3c5a:	70 e0       	ldi	r23, 0x00	; 0
    3c5c:	8f e1       	ldi	r24, 0x1F	; 31
    3c5e:	92 e0       	ldi	r25, 0x02	; 2
    3c60:	0e 94 01 14 	call	0x2802	; 0x2802 <DohvatiPodatke>
			
			ClearAndShowNewScreen(CARD, 0);
    3c64:	60 e0       	ldi	r22, 0x00	; 0
    3c66:	70 e0       	ldi	r23, 0x00	; 0
    3c68:	83 e0       	ldi	r24, 0x03	; 3
    3c6a:	90 e0       	ldi	r25, 0x00	; 0
    3c6c:	0e 94 60 1d 	call	0x3ac0	; 0x3ac0 <ClearAndShowNewScreen>
			
			ClearAndShowNewScreen(INFO, 0);
    3c70:	60 e0       	ldi	r22, 0x00	; 0
    3c72:	70 e0       	ldi	r23, 0x00	; 0
    3c74:	84 e0       	ldi	r24, 0x04	; 4
    3c76:	90 e0       	ldi	r25, 0x00	; 0
    3c78:	0e 94 60 1d 	call	0x3ac0	; 0x3ac0 <ClearAndShowNewScreen>
    3c7c:	9f ef       	ldi	r25, 0xFF	; 255
    3c7e:	21 e1       	ldi	r18, 0x11	; 17
    3c80:	8a e7       	ldi	r24, 0x7A	; 122
    3c82:	91 50       	subi	r25, 0x01	; 1
    3c84:	20 40       	sbci	r18, 0x00	; 0
    3c86:	80 40       	sbci	r24, 0x00	; 0
    3c88:	e1 f7       	brne	.-8      	; 0x3c82 <main+0x148>
    3c8a:	00 c0       	rjmp	.+0      	; 0x3c8c <main+0x152>
    3c8c:	00 00       	nop
			
			_delay_ms(5000);
			
			RESETIRAN=1;
    3c8e:	81 e0       	ldi	r24, 0x01	; 1
    3c90:	90 e0       	ldi	r25, 0x00	; 0
    3c92:	90 93 f2 01 	sts	0x01F2, r25
    3c96:	80 93 f1 01 	sts	0x01F1, r24
			write_eeprom_word(&my_eeprom_word,RESETIRAN);
    3c9a:	61 e0       	ldi	r22, 0x01	; 1
    3c9c:	70 e0       	ldi	r23, 0x00	; 0
    3c9e:	80 e0       	ldi	r24, 0x00	; 0
    3ca0:	90 e0       	ldi	r25, 0x00	; 0
    3ca2:	0e 94 a8 22 	call	0x4550	; 0x4550 <__eewr_word_m32a>
			forceHardReset();
    3ca6:	0e 94 90 1d 	call	0x3b20	; 0x3b20 <forceHardReset>

00003caa <__vector_1>:
}

/**
@brief Interrupt service routine - prekid INT0 za reset i ienje EEPROM-a.
*/
ISR(INT0_vect) {
    3caa:	1f 92       	push	r1
    3cac:	0f 92       	push	r0
    3cae:	0f b6       	in	r0, 0x3f	; 63
    3cb0:	0f 92       	push	r0
    3cb2:	11 24       	eor	r1, r1
	RESETIRAN=0;
    3cb4:	10 92 f2 01 	sts	0x01F2, r1
    3cb8:	10 92 f1 01 	sts	0x01F1, r1
	write_eeprom_word(&my_eeprom_word,RESETIRAN);
    3cbc:	60 e0       	ldi	r22, 0x00	; 0
    3cbe:	70 e0       	ldi	r23, 0x00	; 0
    3cc0:	80 e0       	ldi	r24, 0x00	; 0
    3cc2:	90 e0       	ldi	r25, 0x00	; 0
    3cc4:	0e 94 a8 22 	call	0x4550	; 0x4550 <__eewr_word_m32a>
	forceHardReset();
    3cc8:	0e 94 90 1d 	call	0x3b20	; 0x3b20 <forceHardReset>

00003ccc <LCD_WaitMs>:
*/    
void LCD_WaitMs(unsigned int ms)   
{   
    int i;   
   
    while (ms-- > 0)   
    3ccc:	46 e6       	ldi	r20, 0x66	; 102
    3cce:	56 e0       	ldi	r21, 0x06	; 6
    3cd0:	05 c0       	rjmp	.+10     	; 0x3cdc <LCD_WaitMs+0x10>
    3cd2:	9a 01       	movw	r18, r20
    {   
        /* 8192 (8k) clock cycles for 1ms; each time through loop  
           is 5 cycles (for loop control + nop) */   
        for (i = 0; i < 1638; ++i)   
            asm volatile ("nop");   
    3cd4:	00 00       	nop
    3cd6:	21 50       	subi	r18, 0x01	; 1
    3cd8:	31 09       	sbc	r19, r1
   
    while (ms-- > 0)   
    {   
        /* 8192 (8k) clock cycles for 1ms; each time through loop  
           is 5 cycles (for loop control + nop) */   
        for (i = 0; i < 1638; ++i)   
    3cda:	e1 f7       	brne	.-8      	; 0x3cd4 <LCD_WaitMs+0x8>
*/    
void LCD_WaitMs(unsigned int ms)   
{   
    int i;   
   
    while (ms-- > 0)   
    3cdc:	01 97       	sbiw	r24, 0x01	; 1
    3cde:	c8 f7       	brcc	.-14     	; 0x3cd2 <LCD_WaitMs+0x6>
        /* 8192 (8k) clock cycles for 1ms; each time through loop  
           is 5 cycles (for loop control + nop) */   
        for (i = 0; i < 1638; ++i)   
            asm volatile ("nop");   
    }   
}   
    3ce0:	08 95       	ret

00003ce2 <LCD_WrCmd>:
@return none  
@detail Hardware specific 
*/    
void LCD_WrCmd(unsigned char cmd)    
{    
    LCD_CLR_CS();   // clear CS pin to ENABLE LCD   
    3ce2:	93 98       	cbi	0x12, 3	; 18
   
    LCD_CLR_RS();   
    3ce4:	96 98       	cbi	0x12, 6	; 18
    LCD_SET_DBL = cmd;   
    3ce6:	85 bb       	out	0x15, r24	; 21
    LCD_SET_DBH = (cmd >> 8);   
    3ce8:	1b ba       	out	0x1b, r1	; 27
    LCD_CLR_WR();   
    3cea:	95 98       	cbi	0x12, 5	; 18
    LCD_SET_WR();   
    3cec:	95 9a       	sbi	0x12, 5	; 18
   
    LCD_SET_CS();   // set CS pin to DISABLE LCD   
    3cee:	93 9a       	sbi	0x12, 3	; 18
    3cf0:	08 95       	ret

00003cf2 <LCD_WrDat>:
@return none   
@detail Hardware specific.   
*/    
void LCD_WrDat(unsigned int val)    
{    
    LCD_CLR_CS();               // clear CS pin to ENABLE LCD    
    3cf2:	93 98       	cbi	0x12, 3	; 18
   
    LCD_SET_RS();   
    3cf4:	96 9a       	sbi	0x12, 6	; 18
    LCD_SET_DBL = val;   
    3cf6:	85 bb       	out	0x15, r24	; 21
    LCD_SET_DBH = (val>>8);   
    3cf8:	9b bb       	out	0x1b, r25	; 27
    LCD_CLR_WR();   
    3cfa:	95 98       	cbi	0x12, 5	; 18
    LCD_SET_WR();   
    3cfc:	95 9a       	sbi	0x12, 5	; 18
   
    LCD_SET_CS();   // set CS pin to DISABLE LCD    
    3cfe:	93 9a       	sbi	0x12, 3	; 18
    3d00:	08 95       	ret

00003d02 <LCD_SetReg>:
@param val   - value to be set  
@return none  
@detail Hardware specific
*/   
void LCD_SetReg(unsigned char index, unsigned int val)   
{   
    3d02:	cf 93       	push	r28
    3d04:	df 93       	push	r29
    3d06:	eb 01       	movw	r28, r22
    LCD_WrCmd(index);   
    3d08:	0e 94 71 1e 	call	0x3ce2	; 0x3ce2 <LCD_WrCmd>
    LCD_WrDat(val);   
    3d0c:	ce 01       	movw	r24, r28
    3d0e:	0e 94 79 1e 	call	0x3cf2	; 0x3cf2 <LCD_WrDat>
}   
    3d12:	df 91       	pop	r29
    3d14:	cf 91       	pop	r28
    3d16:	08 95       	ret

00003d18 <LCD_GetReg>:
*/   
unsigned int LCD_GetReg(unsigned char index)   
{   
    unsigned int ret;   
   
    LCD_CLR_CS();   // clear  CS pin to ENABLE LCD    
    3d18:	93 98       	cbi	0x12, 3	; 18
   
    LCD_CLR_RS();   
    3d1a:	96 98       	cbi	0x12, 6	; 18
    LCD_SET_DBL = index;   
    3d1c:	85 bb       	out	0x15, r24	; 21
    LCD_SET_DBH = (index >> 8);   
    3d1e:	1b ba       	out	0x1b, r1	; 27
    LCD_CLR_WR();   
    3d20:	95 98       	cbi	0x12, 5	; 18
    LCD_SET_WR();   
    3d22:	95 9a       	sbi	0x12, 5	; 18
   
    LCD_INPUT();                // input mode   
    3d24:	14 ba       	out	0x14, r1	; 20
    3d26:	1a ba       	out	0x1a, r1	; 26
    LCD_CLR_RD();   
    3d28:	94 98       	cbi	0x12, 4	; 18
    asm volatile ("nop");   
    3d2a:	00 00       	nop
    ret = LCD_GET_DBH();   
    3d2c:	29 b3       	in	r18, 0x19	; 25
    ret <<= 8;   
    3d2e:	92 2f       	mov	r25, r18
    3d30:	80 e0       	ldi	r24, 0x00	; 0
    ret |= LCD_GET_DBL();   
    3d32:	33 b3       	in	r19, 0x13	; 19
    LCD_SET_RD();   
    3d34:	94 9a       	sbi	0x12, 4	; 18
    LCD_SET_CS();   // set CS pin to DISABLE LCD    
    3d36:	93 9a       	sbi	0x12, 3	; 18
   
    LCD_OUTPUT();               // output data   
    3d38:	2f ef       	ldi	r18, 0xFF	; 255
    3d3a:	24 bb       	out	0x14, r18	; 20
    3d3c:	2a bb       	out	0x1a, r18	; 26
    LCD_INPUT();                // input mode   
    LCD_CLR_RD();   
    asm volatile ("nop");   
    ret = LCD_GET_DBH();   
    ret <<= 8;   
    ret |= LCD_GET_DBL();   
    3d3e:	ac 01       	movw	r20, r24
    3d40:	43 2b       	or	r20, r19
    3d42:	9a 01       	movw	r18, r20
    LCD_SET_RD();   
    LCD_SET_CS();   // set CS pin to DISABLE LCD    
   
    LCD_OUTPUT();               // output data   
    return ret;    
}   
    3d44:	82 2f       	mov	r24, r18
    3d46:	93 2f       	mov	r25, r19
    3d48:	08 95       	ret

00003d4a <LCD_InitPort>:
/** 
@brief This function inits LCD IO   
*/   
void LCD_InitPort(void)   
{   
    LCD_SET_DBH = 0xFF;   
    3d4a:	8f ef       	ldi	r24, 0xFF	; 255
    3d4c:	8b bb       	out	0x1b, r24	; 27
    LCD_SET_DBL = 0xFF;   
    3d4e:	85 bb       	out	0x15, r24	; 21
    LCD_OUTPUT();   
    3d50:	84 bb       	out	0x14, r24	; 20
    3d52:	8a bb       	out	0x1a, r24	; 26
   
    // set default   
    LCD_SET_CS();   
    3d54:	93 9a       	sbi	0x12, 3	; 18
    LCD_SET_RS();   
    3d56:	96 9a       	sbi	0x12, 6	; 18
    LCD_SET_WR();   
    3d58:	95 9a       	sbi	0x12, 5	; 18
    LCD_SET_RD();   
    3d5a:	94 9a       	sbi	0x12, 4	; 18
   
    LCD_CLR_RST();   
    3d5c:	97 98       	cbi	0x12, 7	; 18
   
    // init direction   
    LCD_DIR_CS(1);   
    3d5e:	8b 9a       	sbi	0x11, 3	; 17
    LCD_DIR_RS(1);   
    3d60:	8e 9a       	sbi	0x11, 6	; 17
    LCD_DIR_WR(1);   
    3d62:	8d 9a       	sbi	0x11, 5	; 17
    LCD_DIR_RD(1);   
    3d64:	8c 9a       	sbi	0x11, 4	; 17
    LCD_DIR_RST(1);   
    3d66:	8f 9a       	sbi	0x11, 7	; 17
   
    // reset module   
    LCD_WaitMs(20);   
    3d68:	84 e1       	ldi	r24, 0x14	; 20
    3d6a:	90 e0       	ldi	r25, 0x00	; 0
    3d6c:	0e 94 66 1e 	call	0x3ccc	; 0x3ccc <LCD_WaitMs>
    LCD_SET_RST();   
    3d70:	97 9a       	sbi	0x12, 7	; 18
    LCD_WaitMs(20);   
    3d72:	84 e1       	ldi	r24, 0x14	; 20
    3d74:	90 e0       	ldi	r25, 0x00	; 0
    3d76:	0e 94 66 1e 	call	0x3ccc	; 0x3ccc <LCD_WaitMs>
    3d7a:	08 95       	ret

00003d7c <LCD_Reset>:
@brief This function resets LCD module  
*/   
void LCD_Reset(void)   
{   
    unsigned int driver_code;   
    LCD_InitPort();   
    3d7c:	0e 94 a5 1e 	call	0x3d4a	; 0x3d4a <LCD_InitPort>
   
    driver_code = LCD_GetReg(0x00);   
    3d80:	80 e0       	ldi	r24, 0x00	; 0
    3d82:	0e 94 8c 1e 	call	0x3d18	; 0x3d18 <LCD_GetReg>
    LCD_LO_DDR = 0xFF;   
    3d86:	2f ef       	ldi	r18, 0xFF	; 255
    3d88:	24 bb       	out	0x14, r18	; 20
    LCD_HI_DDR = 0xFF;   
    3d8a:	2a bb       	out	0x1a, r18	; 26
   
    LCD_LO_PORT = driver_code;   
    3d8c:	85 bb       	out	0x15, r24	; 21
    LCD_HI_PORT = driver_code>>8;   
    3d8e:	9b bb       	out	0x1b, r25	; 27

    LCD_WrCmd(0x0000);LCD_WrDat(0x0001); //Start Oscillation OSCEN=1   
    3d90:	80 e0       	ldi	r24, 0x00	; 0
    3d92:	0e 94 71 1e 	call	0x3ce2	; 0x3ce2 <LCD_WrCmd>
    3d96:	81 e0       	ldi	r24, 0x01	; 1
    3d98:	90 e0       	ldi	r25, 0x00	; 0
    3d9a:	0e 94 79 1e 	call	0x3cf2	; 0x3cf2 <LCD_WrDat>
    LCD_WaitMs(15);   
    3d9e:	8f e0       	ldi	r24, 0x0F	; 15
    3da0:	90 e0       	ldi	r25, 0x00	; 0
    3da2:	0e 94 66 1e 	call	0x3ccc	; 0x3ccc <LCD_WaitMs>
    LCD_WrCmd(0x0003);LCD_WrDat(0xAAAC); //Power Control (1)   
    3da6:	83 e0       	ldi	r24, 0x03	; 3
    3da8:	0e 94 71 1e 	call	0x3ce2	; 0x3ce2 <LCD_WrCmd>
    3dac:	8c ea       	ldi	r24, 0xAC	; 172
    3dae:	9a ea       	ldi	r25, 0xAA	; 170
    3db0:	0e 94 79 1e 	call	0x3cf2	; 0x3cf2 <LCD_WrDat>
    LCD_WrCmd(0x000C);LCD_WrDat(0x0002); //Power Control (2)   
    3db4:	8c e0       	ldi	r24, 0x0C	; 12
    3db6:	0e 94 71 1e 	call	0x3ce2	; 0x3ce2 <LCD_WrCmd>
    3dba:	82 e0       	ldi	r24, 0x02	; 2
    3dbc:	90 e0       	ldi	r25, 0x00	; 0
    3dbe:	0e 94 79 1e 	call	0x3cf2	; 0x3cf2 <LCD_WrDat>
    LCD_WrCmd(0x000D);LCD_WrDat(0x000A); //Power Control (3)   
    3dc2:	8d e0       	ldi	r24, 0x0D	; 13
    3dc4:	0e 94 71 1e 	call	0x3ce2	; 0x3ce2 <LCD_WrCmd>
    3dc8:	8a e0       	ldi	r24, 0x0A	; 10
    3dca:	90 e0       	ldi	r25, 0x00	; 0
    3dcc:	0e 94 79 1e 	call	0x3cf2	; 0x3cf2 <LCD_WrDat>
    LCD_WrCmd(0x000E);LCD_WrDat(0x2C00); //Power Control (4)   
    3dd0:	8e e0       	ldi	r24, 0x0E	; 14
    3dd2:	0e 94 71 1e 	call	0x3ce2	; 0x3ce2 <LCD_WrCmd>
    3dd6:	80 e0       	ldi	r24, 0x00	; 0
    3dd8:	9c e2       	ldi	r25, 0x2C	; 44
    3dda:	0e 94 79 1e 	call	0x3cf2	; 0x3cf2 <LCD_WrDat>
    LCD_WrCmd(0x001E);LCD_WrDat(0x00B8); //Power Control (5)   
    3dde:	8e e1       	ldi	r24, 0x1E	; 30
    3de0:	0e 94 71 1e 	call	0x3ce2	; 0x3ce2 <LCD_WrCmd>
    3de4:	88 eb       	ldi	r24, 0xB8	; 184
    3de6:	90 e0       	ldi	r25, 0x00	; 0
    3de8:	0e 94 79 1e 	call	0x3cf2	; 0x3cf2 <LCD_WrDat>
    LCD_WaitMs(15);   
    3dec:	8f e0       	ldi	r24, 0x0F	; 15
    3dee:	90 e0       	ldi	r25, 0x00	; 0
    3df0:	0e 94 66 1e 	call	0x3ccc	; 0x3ccc <LCD_WaitMs>
    LCD_WrCmd(0x0001);LCD_WrDat(0x2B3F); //Driver Output Control RL=0, REV=1, BGR=1, TB=1    
    3df4:	81 e0       	ldi	r24, 0x01	; 1
    3df6:	0e 94 71 1e 	call	0x3ce2	; 0x3ce2 <LCD_WrCmd>
    3dfa:	8f e3       	ldi	r24, 0x3F	; 63
    3dfc:	9b e2       	ldi	r25, 0x2B	; 43
    3dfe:	0e 94 79 1e 	call	0x3cf2	; 0x3cf2 <LCD_WrDat>
//      LCD_WrCmd(0x0001);LCD_WrDat(0x6B3F); //Driver Output Control RL=1, REV=1, BGR=1, TB=1    
    LCD_WrCmd(0x0002);LCD_WrDat(0x0600);   
    3e02:	82 e0       	ldi	r24, 0x02	; 2
    3e04:	0e 94 71 1e 	call	0x3ce2	; 0x3ce2 <LCD_WrCmd>
    3e08:	80 e0       	ldi	r24, 0x00	; 0
    3e0a:	96 e0       	ldi	r25, 0x06	; 6
    3e0c:	0e 94 79 1e 	call	0x3cf2	; 0x3cf2 <LCD_WrDat>
    // Restore VSYNC mode from low power state    
    LCD_WrCmd(0x0010);LCD_WrDat(0x0000); //Sleep mode cancel   
    3e10:	80 e1       	ldi	r24, 0x10	; 16
    3e12:	0e 94 71 1e 	call	0x3ce2	; 0x3ce2 <LCD_WrCmd>
    3e16:	80 e0       	ldi	r24, 0x00	; 0
    3e18:	90 e0       	ldi	r25, 0x00	; 0
    3e1a:	0e 94 79 1e 	call	0x3cf2	; 0x3cf2 <LCD_WrDat>
    LCD_WrCmd(0x0011);LCD_WrDat(0x6030); //Entry Mode   
    3e1e:	81 e1       	ldi	r24, 0x11	; 17
    3e20:	0e 94 71 1e 	call	0x3ce2	; 0x3ce2 <LCD_WrCmd>
    3e24:	80 e3       	ldi	r24, 0x30	; 48
    3e26:	90 e6       	ldi	r25, 0x60	; 96
    3e28:	0e 94 79 1e 	call	0x3cf2	; 0x3cf2 <LCD_WrDat>
                                        // ID[0] 0x0000 = horizontal decrement   
                                        // ID[0] 0x0010 = horizontal increment   
                                        // ID[1] 0x0000 = Vertical decrement   
                                        // ID[1] 0x0020 = Vertical decrement   
   
    LCD_WaitMs(20);   
    3e2c:	84 e1       	ldi	r24, 0x14	; 20
    3e2e:	90 e0       	ldi	r25, 0x00	; 0
    3e30:	0e 94 66 1e 	call	0x3ccc	; 0x3ccc <LCD_WaitMs>
    LCD_WrCmd(0x0005);LCD_WrDat(0x0000); // Compare register   
    3e34:	85 e0       	ldi	r24, 0x05	; 5
    3e36:	0e 94 71 1e 	call	0x3ce2	; 0x3ce2 <LCD_WrCmd>
    3e3a:	80 e0       	ldi	r24, 0x00	; 0
    3e3c:	90 e0       	ldi	r25, 0x00	; 0
    3e3e:	0e 94 79 1e 	call	0x3cf2	; 0x3cf2 <LCD_WrDat>
    LCD_WrCmd(0x0006);LCD_WrDat(0x0000); // Compare register   
    3e42:	86 e0       	ldi	r24, 0x06	; 6
    3e44:	0e 94 71 1e 	call	0x3ce2	; 0x3ce2 <LCD_WrCmd>
    3e48:	80 e0       	ldi	r24, 0x00	; 0
    3e4a:	90 e0       	ldi	r25, 0x00	; 0
    3e4c:	0e 94 79 1e 	call	0x3cf2	; 0x3cf2 <LCD_WrDat>
    // Horizontal and Vertical porch are for DOTCLK mode operation   
    LCD_WrCmd(0x0016);LCD_WrDat(0xEF1C); // Horizontal Porch    
    3e50:	86 e1       	ldi	r24, 0x16	; 22
    3e52:	0e 94 71 1e 	call	0x3ce2	; 0x3ce2 <LCD_WrCmd>
    3e56:	8c e1       	ldi	r24, 0x1C	; 28
    3e58:	9f ee       	ldi	r25, 0xEF	; 239
    3e5a:	0e 94 79 1e 	call	0x3cf2	; 0x3cf2 <LCD_WrDat>
    LCD_WrCmd(0x0017);LCD_WrDat(0x0003); // Vertical Porch   
    3e5e:	87 e1       	ldi	r24, 0x17	; 23
    3e60:	0e 94 71 1e 	call	0x3ce2	; 0x3ce2 <LCD_WrCmd>
    3e64:	83 e0       	ldi	r24, 0x03	; 3
    3e66:	90 e0       	ldi	r25, 0x00	; 0
    3e68:	0e 94 79 1e 	call	0x3cf2	; 0x3cf2 <LCD_WrDat>
    // Display Control   
    LCD_WrCmd(0x0007);LCD_WrDat(0x0233); // Display Control   
    3e6c:	87 e0       	ldi	r24, 0x07	; 7
    3e6e:	0e 94 71 1e 	call	0x3ce2	; 0x3ce2 <LCD_WrCmd>
    3e72:	83 e3       	ldi	r24, 0x33	; 51
    3e74:	92 e0       	ldi	r25, 0x02	; 2
    3e76:	0e 94 79 1e 	call	0x3cf2	; 0x3cf2 <LCD_WrDat>
                                         // D1 0x0002 = display on   
                                         // D0 0x0000 = internal display halt   
                                         // D0 0x0001 = internal display operate   
   
   
    LCD_WrCmd(0x000B);LCD_WrDat(0x5312); // Frame cycle control   
    3e7a:	8b e0       	ldi	r24, 0x0B	; 11
    3e7c:	0e 94 71 1e 	call	0x3ce2	; 0x3ce2 <LCD_WrCmd>
    3e80:	82 e1       	ldi	r24, 0x12	; 18
    3e82:	93 e5       	ldi	r25, 0x53	; 83
    3e84:	0e 94 79 1e 	call	0x3cf2	; 0x3cf2 <LCD_WrDat>
    LCD_WrCmd(0x000F);LCD_WrDat(0x0000); // Gate Scan Position    
    3e88:	8f e0       	ldi	r24, 0x0F	; 15
    3e8a:	0e 94 71 1e 	call	0x3ce2	; 0x3ce2 <LCD_WrCmd>
    3e8e:	80 e0       	ldi	r24, 0x00	; 0
    3e90:	90 e0       	ldi	r25, 0x00	; 0
    3e92:	0e 94 79 1e 	call	0x3cf2	; 0x3cf2 <LCD_WrDat>
    LCD_WaitMs(20);   
    3e96:	84 e1       	ldi	r24, 0x14	; 20
    3e98:	90 e0       	ldi	r25, 0x00	; 0
    3e9a:	0e 94 66 1e 	call	0x3ccc	; 0x3ccc <LCD_WaitMs>
    // Vertical Scroll Control   
    LCD_WrCmd(0x0041);LCD_WrDat(0x0000); // Vertical Scroll Control   
    3e9e:	81 e4       	ldi	r24, 0x41	; 65
    3ea0:	0e 94 71 1e 	call	0x3ce2	; 0x3ce2 <LCD_WrCmd>
    3ea4:	80 e0       	ldi	r24, 0x00	; 0
    3ea6:	90 e0       	ldi	r25, 0x00	; 0
    3ea8:	0e 94 79 1e 	call	0x3cf2	; 0x3cf2 <LCD_WrDat>
    LCD_WrCmd(0x0042);LCD_WrDat(0x0000); // Vertical Scroll Control   
    3eac:	82 e4       	ldi	r24, 0x42	; 66
    3eae:	0e 94 71 1e 	call	0x3ce2	; 0x3ce2 <LCD_WrCmd>
    3eb2:	80 e0       	ldi	r24, 0x00	; 0
    3eb4:	90 e0       	ldi	r25, 0x00	; 0
    3eb6:	0e 94 79 1e 	call	0x3cf2	; 0x3cf2 <LCD_WrDat>
   
    // 1st Screen driving position   
    LCD_WrCmd(0x0048);LCD_WrDat(0x0000); // Start position. 0   
    3eba:	88 e4       	ldi	r24, 0x48	; 72
    3ebc:	0e 94 71 1e 	call	0x3ce2	; 0x3ce2 <LCD_WrCmd>
    3ec0:	80 e0       	ldi	r24, 0x00	; 0
    3ec2:	90 e0       	ldi	r25, 0x00	; 0
    3ec4:	0e 94 79 1e 	call	0x3cf2	; 0x3cf2 <LCD_WrDat>
    LCD_WrCmd(0x0049);LCD_WrDat(0x013F); // End position.   319   
    3ec8:	89 e4       	ldi	r24, 0x49	; 73
    3eca:	0e 94 71 1e 	call	0x3ce2	; 0x3ce2 <LCD_WrCmd>
    3ece:	8f e3       	ldi	r24, 0x3F	; 63
    3ed0:	91 e0       	ldi	r25, 0x01	; 1
    3ed2:	0e 94 79 1e 	call	0x3cf2	; 0x3cf2 <LCD_WrDat>
   
    // Source RAM address   
    LCD_WrCmd(0x0044);LCD_WrDat(0xEF00); //Horizontal RAM address position start/end setup    
    3ed6:	84 e4       	ldi	r24, 0x44	; 68
    3ed8:	0e 94 71 1e 	call	0x3ce2	; 0x3ce2 <LCD_WrCmd>
    3edc:	80 e0       	ldi	r24, 0x00	; 0
    3ede:	9f ee       	ldi	r25, 0xEF	; 239
    3ee0:	0e 94 79 1e 	call	0x3cf2	; 0x3cf2 <LCD_WrDat>
                                         //dec 239    
                                         //dec 0, i.e. horizontal ranges from 0 -> 239    
                                         //POR value is 0xEF00 anyway. This address must be set before RAM write    
   
    LCD_WrCmd(0x0045);LCD_WrDat(0x0000); //Vertical RAM address start position setting    
    3ee4:	85 e4       	ldi	r24, 0x45	; 69
    3ee6:	0e 94 71 1e 	call	0x3ce2	; 0x3ce2 <LCD_WrCmd>
    3eea:	80 e0       	ldi	r24, 0x00	; 0
    3eec:	90 e0       	ldi	r25, 0x00	; 0
    3eee:	0e 94 79 1e 	call	0x3cf2	; 0x3cf2 <LCD_WrDat>
                                         //0x0000 = dec 0   
    LCD_WrCmd(0x0046);LCD_WrDat(0x013F); //Vertical RAM address end position setting (0x013F = dec 319)   
    3ef2:	86 e4       	ldi	r24, 0x46	; 70
    3ef4:	0e 94 71 1e 	call	0x3ce2	; 0x3ce2 <LCD_WrCmd>
    3ef8:	8f e3       	ldi	r24, 0x3F	; 63
    3efa:	91 e0       	ldi	r25, 0x01	; 1
    3efc:	0e 94 79 1e 	call	0x3cf2	; 0x3cf2 <LCD_WrDat>
   
        // 2nd Screen driving position   
//      LCD_WrCmd(0x004A);LCD_WrDat(0x0000); // Start position. 0   
//      LCD_WrCmd(0x004B);LCD_WrDat(0x0000); // End position.   0   
    LCD_WaitMs(20);    
    3f00:	84 e1       	ldi	r24, 0x14	; 20
    3f02:	90 e0       	ldi	r25, 0x00	; 0
    3f04:	0e 94 66 1e 	call	0x3ccc	; 0x3ccc <LCD_WaitMs>
    //gamma control    
    LCD_WrCmd(0x0030);LCD_WrDat(0x0707);   
    3f08:	80 e3       	ldi	r24, 0x30	; 48
    3f0a:	0e 94 71 1e 	call	0x3ce2	; 0x3ce2 <LCD_WrCmd>
    3f0e:	87 e0       	ldi	r24, 0x07	; 7
    3f10:	97 e0       	ldi	r25, 0x07	; 7
    3f12:	0e 94 79 1e 	call	0x3cf2	; 0x3cf2 <LCD_WrDat>
    LCD_WrCmd(0x0031);LCD_WrDat(0x0704);   
    3f16:	81 e3       	ldi	r24, 0x31	; 49
    3f18:	0e 94 71 1e 	call	0x3ce2	; 0x3ce2 <LCD_WrCmd>
    3f1c:	84 e0       	ldi	r24, 0x04	; 4
    3f1e:	97 e0       	ldi	r25, 0x07	; 7
    3f20:	0e 94 79 1e 	call	0x3cf2	; 0x3cf2 <LCD_WrDat>
    LCD_WrCmd(0x0032);LCD_WrDat(0x0204);   
    3f24:	82 e3       	ldi	r24, 0x32	; 50
    3f26:	0e 94 71 1e 	call	0x3ce2	; 0x3ce2 <LCD_WrCmd>
    3f2a:	84 e0       	ldi	r24, 0x04	; 4
    3f2c:	92 e0       	ldi	r25, 0x02	; 2
    3f2e:	0e 94 79 1e 	call	0x3cf2	; 0x3cf2 <LCD_WrDat>
    LCD_WrCmd(0x0033);LCD_WrDat(0x0201);   
    3f32:	83 e3       	ldi	r24, 0x33	; 51
    3f34:	0e 94 71 1e 	call	0x3ce2	; 0x3ce2 <LCD_WrCmd>
    3f38:	81 e0       	ldi	r24, 0x01	; 1
    3f3a:	92 e0       	ldi	r25, 0x02	; 2
    3f3c:	0e 94 79 1e 	call	0x3cf2	; 0x3cf2 <LCD_WrDat>
    LCD_WrCmd(0x0034);LCD_WrDat(0x0203);   
    3f40:	84 e3       	ldi	r24, 0x34	; 52
    3f42:	0e 94 71 1e 	call	0x3ce2	; 0x3ce2 <LCD_WrCmd>
    3f46:	83 e0       	ldi	r24, 0x03	; 3
    3f48:	92 e0       	ldi	r25, 0x02	; 2
    3f4a:	0e 94 79 1e 	call	0x3cf2	; 0x3cf2 <LCD_WrDat>
    LCD_WrCmd(0x0035);LCD_WrDat(0x0204);   
    3f4e:	85 e3       	ldi	r24, 0x35	; 53
    3f50:	0e 94 71 1e 	call	0x3ce2	; 0x3ce2 <LCD_WrCmd>
    3f54:	84 e0       	ldi	r24, 0x04	; 4
    3f56:	92 e0       	ldi	r25, 0x02	; 2
    3f58:	0e 94 79 1e 	call	0x3cf2	; 0x3cf2 <LCD_WrDat>
    LCD_WrCmd(0x0036);LCD_WrDat(0x0204);   
    3f5c:	86 e3       	ldi	r24, 0x36	; 54
    3f5e:	0e 94 71 1e 	call	0x3ce2	; 0x3ce2 <LCD_WrCmd>
    3f62:	84 e0       	ldi	r24, 0x04	; 4
    3f64:	92 e0       	ldi	r25, 0x02	; 2
    3f66:	0e 94 79 1e 	call	0x3cf2	; 0x3cf2 <LCD_WrDat>
    LCD_WrCmd(0x0037);LCD_WrDat(0x0502);   
    3f6a:	87 e3       	ldi	r24, 0x37	; 55
    3f6c:	0e 94 71 1e 	call	0x3ce2	; 0x3ce2 <LCD_WrCmd>
    3f70:	82 e0       	ldi	r24, 0x02	; 2
    3f72:	95 e0       	ldi	r25, 0x05	; 5
    3f74:	0e 94 79 1e 	call	0x3cf2	; 0x3cf2 <LCD_WrDat>
    LCD_WrCmd(0x003A);LCD_WrDat(0x0302);   
    3f78:	8a e3       	ldi	r24, 0x3A	; 58
    3f7a:	0e 94 71 1e 	call	0x3ce2	; 0x3ce2 <LCD_WrCmd>
    3f7e:	82 e0       	ldi	r24, 0x02	; 2
    3f80:	93 e0       	ldi	r25, 0x03	; 3
    3f82:	0e 94 79 1e 	call	0x3cf2	; 0x3cf2 <LCD_WrDat>
    LCD_WrCmd(0x003B);LCD_WrDat(0x0500);   
    3f86:	8b e3       	ldi	r24, 0x3B	; 59
    3f88:	0e 94 71 1e 	call	0x3ce2	; 0x3ce2 <LCD_WrCmd>
    3f8c:	80 e0       	ldi	r24, 0x00	; 0
    3f8e:	95 e0       	ldi	r25, 0x05	; 5
    3f90:	0e 94 79 1e 	call	0x3cf2	; 0x3cf2 <LCD_WrDat>
   
    LCD_WaitMs(20);   
    3f94:	84 e1       	ldi	r24, 0x14	; 20
    3f96:	90 e0       	ldi	r25, 0x00	; 0
    3f98:	0e 94 66 1e 	call	0x3ccc	; 0x3ccc <LCD_WaitMs>
    3f9c:	08 95       	ret

00003f9e <LCD_SetCursor>:
@param x,y - pixel coordinates  
@return none  
@detail set start address change  
*/   
void LCD_SetCursor(unsigned int x, unsigned int y)   
{   
    3f9e:	cf 93       	push	r28
    3fa0:	df 93       	push	r29
    3fa2:	eb 01       	movw	r28, r22
#ifdef Horizontal   
    LCD_SetReg(0x4E,x); // initial settings for the GDDRAM X address in the address counter (AC).   
    3fa4:	bc 01       	movw	r22, r24
    3fa6:	8e e4       	ldi	r24, 0x4E	; 78
    3fa8:	0e 94 81 1e 	call	0x3d02	; 0x3d02 <LCD_SetReg>
    LCD_SetReg(0x4F,y); // initial settings for the GDDRAM Y address in the address counter (AC).   
    3fac:	be 01       	movw	r22, r28
    3fae:	8f e4       	ldi	r24, 0x4F	; 79
    3fb0:	0e 94 81 1e 	call	0x3d02	; 0x3d02 <LCD_SetReg>
#else   
    LCD_SetReg(0x4E,y); // initial settings for the GDDRAM X address in the address counter (AC).   
    LCD_SetReg(0x4F,x); // initial settings for the GDDRAM Y address in the address counter (AC).   
#endif   
    LCD_WrCmd(0x22);    
    3fb4:	82 e2       	ldi	r24, 0x22	; 34
    3fb6:	0e 94 71 1e 	call	0x3ce2	; 0x3ce2 <LCD_WrCmd>
}   
    3fba:	df 91       	pop	r29
    3fbc:	cf 91       	pop	r28
    3fbe:	08 95       	ret

00003fc0 <LCD_SetArea>:
@param x1,y1,x2,y2 - pixel coordinates  
@return none  
@detail Side Effects: paint area change  
*/   
void LCD_SetArea(unsigned int x1, unsigned int y1, unsigned int x2, unsigned int y2)   
{   
    3fc0:	df 92       	push	r13
    3fc2:	ef 92       	push	r14
    3fc4:	ff 92       	push	r15
    3fc6:	0f 93       	push	r16
    3fc8:	1f 93       	push	r17
    3fca:	cf 93       	push	r28
    3fcc:	df 93       	push	r29
    3fce:	ec 01       	movw	r28, r24
    3fd0:	8b 01       	movw	r16, r22
    3fd2:	d4 2e       	mov	r13, r20
    3fd4:	79 01       	movw	r14, r18
#ifdef Horizontal   
    LCD_WrCmd(0x44); LCD_WrDat((x2 << 8) | x1);    // Source RAM address window    
    3fd6:	84 e4       	ldi	r24, 0x44	; 68
    3fd8:	0e 94 71 1e 	call	0x3ce2	; 0x3ce2 <LCD_WrCmd>
    3fdc:	9d 2d       	mov	r25, r13
    3fde:	80 e0       	ldi	r24, 0x00	; 0
    3fe0:	8c 2b       	or	r24, r28
    3fe2:	9d 2b       	or	r25, r29
    3fe4:	0e 94 79 1e 	call	0x3cf2	; 0x3cf2 <LCD_WrDat>
    LCD_WrCmd(0x45); LCD_WrDat(y1);    // Gate RAM address window    
    3fe8:	85 e4       	ldi	r24, 0x45	; 69
    3fea:	0e 94 71 1e 	call	0x3ce2	; 0x3ce2 <LCD_WrCmd>
    3fee:	c8 01       	movw	r24, r16
    3ff0:	0e 94 79 1e 	call	0x3cf2	; 0x3cf2 <LCD_WrDat>
    LCD_WrCmd(0x46); LCD_WrDat(y2);    // Gate RAM address window    
    3ff4:	86 e4       	ldi	r24, 0x46	; 70
    3ff6:	0e 94 71 1e 	call	0x3ce2	; 0x3ce2 <LCD_WrCmd>
    3ffa:	c7 01       	movw	r24, r14
    3ffc:	0e 94 79 1e 	call	0x3cf2	; 0x3cf2 <LCD_WrDat>
#else   
    LCD_WrCmd(0x44); LCD_WrDat((y2 << 8) | y1);    // Source RAM address window    
    LCD_WrCmd(0x45); LCD_WrDat(x1);    // Gate RAM address window    
    LCD_WrCmd(0x46); LCD_WrDat(x2);    // Gate RAM address window    
#endif   
    LCD_SetCursor(x1, y1);;   
    4000:	b8 01       	movw	r22, r16
    4002:	ce 01       	movw	r24, r28
    4004:	0e 94 cf 1f 	call	0x3f9e	; 0x3f9e <LCD_SetCursor>
}   
    4008:	df 91       	pop	r29
    400a:	cf 91       	pop	r28
    400c:	1f 91       	pop	r17
    400e:	0f 91       	pop	r16
    4010:	ff 90       	pop	r15
    4012:	ef 90       	pop	r14
    4014:	df 90       	pop	r13
    4016:	08 95       	ret

00004018 <LCD_PutPixel>:
@param x,y - pixel coordinates  
@return none  
*/   
void LCD_PutPixel(unsigned int x, unsigned int y)   
{   
    LCD_SetCursor(x,y);   
    4018:	0e 94 cf 1f 	call	0x3f9e	; 0x3f9e <LCD_SetCursor>
    LCD_WrDat(_color);   
    401c:	80 91 6d 00 	lds	r24, 0x006D
    4020:	90 91 6e 00 	lds	r25, 0x006E
    4024:	0e 94 79 1e 	call	0x3cf2	; 0x3cf2 <LCD_WrDat>
    4028:	08 95       	ret

0000402a <LCD_Bar>:
*  address x = x  \n
*  address y = y << 8  \n
*  new line y = y + 0x100  \n
*/   
void LCD_Bar(unsigned int left, unsigned int top, unsigned int right, unsigned int bottom, unsigned int color)   
{   
    402a:	6f 92       	push	r6
    402c:	7f 92       	push	r7
    402e:	8f 92       	push	r8
    4030:	9f 92       	push	r9
    4032:	af 92       	push	r10
    4034:	bf 92       	push	r11
    4036:	cf 92       	push	r12
    4038:	df 92       	push	r13
    403a:	ef 92       	push	r14
    403c:	ff 92       	push	r15
    403e:	0f 93       	push	r16
    4040:	1f 93       	push	r17
    4042:	cf 93       	push	r28
    4044:	df 93       	push	r29
    4046:	5c 01       	movw	r10, r24
    4048:	6b 01       	movw	r12, r22
    404a:	7a 01       	movw	r14, r20
    404c:	49 01       	movw	r8, r18
    register unsigned int x,y;   
   
    LCD_SetArea(left, top, right, bottom);   
    404e:	0e 94 e0 1f 	call	0x3fc0	; 0x3fc0 <LCD_SetArea>
    for(y=top; y<=bottom; y++)   
    4052:	8c 14       	cp	r8, r12
    4054:	9d 04       	cpc	r9, r13
    4056:	88 f4       	brcc	.+34     	; 0x407a <LCD_Bar+0x50>
    4058:	16 c0       	rjmp	.+44     	; 0x4086 <LCD_Bar+0x5c>
    {   
        for(x=left; x<=right; x++)   
    405a:	c6 2d       	mov	r28, r6
    405c:	d7 2d       	mov	r29, r7
        {   
            LCD_WrDat(color);   
    405e:	c8 01       	movw	r24, r16
    4060:	0e 94 79 1e 	call	0x3cf2	; 0x3cf2 <LCD_WrDat>
    register unsigned int x,y;   
   
    LCD_SetArea(left, top, right, bottom);   
    for(y=top; y<=bottom; y++)   
    {   
        for(x=left; x<=right; x++)   
    4064:	21 96       	adiw	r28, 0x01	; 1
    4066:	ec 16       	cp	r14, r28
    4068:	fd 06       	cpc	r15, r29
    406a:	c8 f7       	brcc	.-14     	; 0x405e <LCD_Bar+0x34>
void LCD_Bar(unsigned int left, unsigned int top, unsigned int right, unsigned int bottom, unsigned int color)   
{   
    register unsigned int x,y;   
   
    LCD_SetArea(left, top, right, bottom);   
    for(y=top; y<=bottom; y++)   
    406c:	8f ef       	ldi	r24, 0xFF	; 255
    406e:	c8 1a       	sub	r12, r24
    4070:	d8 0a       	sbc	r13, r24
    4072:	8c 14       	cp	r8, r12
    4074:	9d 04       	cpc	r9, r13
    4076:	18 f4       	brcc	.+6      	; 0x407e <LCD_Bar+0x54>
    4078:	06 c0       	rjmp	.+12     	; 0x4086 <LCD_Bar+0x5c>
    {   
        for(x=left; x<=right; x++)   
    407a:	6a 2c       	mov	r6, r10
    407c:	7b 2c       	mov	r7, r11
    407e:	ea 14       	cp	r14, r10
    4080:	fb 04       	cpc	r15, r11
    4082:	58 f7       	brcc	.-42     	; 0x405a <LCD_Bar+0x30>
    4084:	f3 cf       	rjmp	.-26     	; 0x406c <LCD_Bar+0x42>
        {   
            LCD_WrDat(color);   
        }   
    }   
    LCD_SetArea(0, 0, GetMaxX(), GetMaxY());   
    4086:	2f e3       	ldi	r18, 0x3F	; 63
    4088:	31 e0       	ldi	r19, 0x01	; 1
    408a:	4f ee       	ldi	r20, 0xEF	; 239
    408c:	50 e0       	ldi	r21, 0x00	; 0
    408e:	60 e0       	ldi	r22, 0x00	; 0
    4090:	70 e0       	ldi	r23, 0x00	; 0
    4092:	80 e0       	ldi	r24, 0x00	; 0
    4094:	90 e0       	ldi	r25, 0x00	; 0
    4096:	0e 94 e0 1f 	call	0x3fc0	; 0x3fc0 <LCD_SetArea>
}   
    409a:	df 91       	pop	r29
    409c:	cf 91       	pop	r28
    409e:	1f 91       	pop	r17
    40a0:	0f 91       	pop	r16
    40a2:	ff 90       	pop	r15
    40a4:	ef 90       	pop	r14
    40a6:	df 90       	pop	r13
    40a8:	cf 90       	pop	r12
    40aa:	bf 90       	pop	r11
    40ac:	af 90       	pop	r10
    40ae:	9f 90       	pop	r9
    40b0:	8f 90       	pop	r8
    40b2:	7f 90       	pop	r7
    40b4:	6f 90       	pop	r6
    40b6:	08 95       	ret

000040b8 <LCD_Clear>:
@brief Fill display with color  
@param color - paint color  
@return 
*/   
void LCD_Clear(unsigned int color)   
{   
    40b8:	0f 93       	push	r16
    40ba:	1f 93       	push	r17
//  LCD_WrCmd(0x0007);LCD_WrDat(0x0221); // Display Control: display off   
    LCD_Bar(0, 0, GetMaxX(), GetMaxY(), color);   
    40bc:	8c 01       	movw	r16, r24
    40be:	2f e3       	ldi	r18, 0x3F	; 63
    40c0:	31 e0       	ldi	r19, 0x01	; 1
    40c2:	4f ee       	ldi	r20, 0xEF	; 239
    40c4:	50 e0       	ldi	r21, 0x00	; 0
    40c6:	60 e0       	ldi	r22, 0x00	; 0
    40c8:	70 e0       	ldi	r23, 0x00	; 0
    40ca:	80 e0       	ldi	r24, 0x00	; 0
    40cc:	90 e0       	ldi	r25, 0x00	; 0
    40ce:	0e 94 15 20 	call	0x402a	; 0x402a <LCD_Bar>
//  LCD_WrCmd(0x0007);LCD_WrDat(0x0233); // Display Control: display on   
}   
    40d2:	1f 91       	pop	r17
    40d4:	0f 91       	pop	r16
    40d6:	08 95       	ret

000040d8 <VratiOdNtePojaveDelimiteraDoDelimitera>:
@param leftDelim - lijevi delimiter
@param       pos - koje je po redu pojavljivanje lijevog delimitera u haystacku
@param delimiter - desni delimiter
@return haystack - vraanje stringa u danom rasponu
*/
char* VratiOdNtePojaveDelimiteraDoDelimitera(char* string, char* leftDelim, int pos, char* rightDelim) {
    40d8:	af 92       	push	r10
    40da:	bf 92       	push	r11
    40dc:	cf 92       	push	r12
    40de:	df 92       	push	r13
    40e0:	ef 92       	push	r14
    40e2:	ff 92       	push	r15
    40e4:	0f 93       	push	r16
    40e6:	1f 93       	push	r17
    40e8:	cf 93       	push	r28
    40ea:	df 93       	push	r29
    40ec:	a8 2e       	mov	r10, r24
    40ee:	b9 2e       	mov	r11, r25
    40f0:	6b 01       	movw	r12, r22
    40f2:	8a 01       	movw	r16, r20
    40f4:	79 01       	movw	r14, r18

	char *haystack;

	haystack = (char*) malloc(strlen(string));
    40f6:	e8 2f       	mov	r30, r24
    40f8:	f9 2f       	mov	r31, r25
    40fa:	df 01       	movw	r26, r30
    40fc:	0d 90       	ld	r0, X+
    40fe:	00 20       	and	r0, r0
    4100:	e9 f7       	brne	.-6      	; 0x40fc <VratiOdNtePojaveDelimiteraDoDelimitera+0x24>
    4102:	11 97       	sbiw	r26, 0x01	; 1
    4104:	cd 01       	movw	r24, r26
    4106:	8e 1b       	sub	r24, r30
    4108:	9f 0b       	sbc	r25, r31
    410a:	0e 94 23 21 	call	0x4246	; 0x4246 <malloc>
    410e:	c8 2f       	mov	r28, r24
    4110:	d9 2f       	mov	r29, r25
	strcpy(haystack, string);
    4112:	6a 2d       	mov	r22, r10
    4114:	7b 2d       	mov	r23, r11
    4116:	ce 01       	movw	r24, r28
    4118:	0e 94 74 22 	call	0x44e8	; 0x44e8 <strcpy>
 
	while(haystack != '\0') {
    411c:	20 97       	sbiw	r28, 0x00	; 0
    411e:	99 f0       	breq	.+38     	; 0x4146 <VratiOdNtePojaveDelimiteraDoDelimitera+0x6e>
		if(*haystack == *leftDelim) {
    4120:	f6 01       	movw	r30, r12
    4122:	90 81       	ld	r25, Z
    4124:	fe 01       	movw	r30, r28
    4126:	df 01       	movw	r26, r30
    4128:	31 96       	adiw	r30, 0x01	; 1
    412a:	8c 91       	ld	r24, X
    412c:	89 13       	cpse	r24, r25
    412e:	02 c0       	rjmp	.+4      	; 0x4134 <VratiOdNtePojaveDelimiteraDoDelimitera+0x5c>
			pos--;
    4130:	01 50       	subi	r16, 0x01	; 1
    4132:	11 09       	sbc	r17, r1
		}
		if(pos == 0) {
    4134:	01 15       	cp	r16, r1
    4136:	11 05       	cpc	r17, r1
    4138:	19 f4       	brne	.+6      	; 0x4140 <VratiOdNtePojaveDelimiteraDoDelimitera+0x68>
			haystack++;
    413a:	ed 01       	movw	r28, r26
    413c:	21 96       	adiw	r28, 0x01	; 1
			break;
    413e:	03 c0       	rjmp	.+6      	; 0x4146 <VratiOdNtePojaveDelimiteraDoDelimitera+0x6e>
		}
		haystack++;
    4140:	ef 01       	movw	r28, r30
	char *haystack;

	haystack = (char*) malloc(strlen(string));
	strcpy(haystack, string);
 
	while(haystack != '\0') {
    4142:	30 97       	sbiw	r30, 0x00	; 0
    4144:	81 f7       	brne	.-32     	; 0x4126 <VratiOdNtePojaveDelimiteraDoDelimitera+0x4e>
			break;
		}
		haystack++;
	}

	strtok(haystack, rightDelim);
    4146:	b7 01       	movw	r22, r14
    4148:	ce 01       	movw	r24, r28
    414a:	0e 94 5b 22 	call	0x44b6	; 0x44b6 <strtok>

	return haystack;

}
    414e:	8c 2f       	mov	r24, r28
    4150:	9d 2f       	mov	r25, r29
    4152:	df 91       	pop	r29
    4154:	cf 91       	pop	r28
    4156:	1f 91       	pop	r17
    4158:	0f 91       	pop	r16
    415a:	ff 90       	pop	r15
    415c:	ef 90       	pop	r14
    415e:	df 90       	pop	r13
    4160:	cf 90       	pop	r12
    4162:	bf 90       	pop	r11
    4164:	af 90       	pop	r10
    4166:	08 95       	ret

00004168 <VratiOdPozicijeDoPozicije>:
@param        string - haystack iz kojeg elimo izvui needle
@param   lefPosition - lijeva pozicija
@param rightPosition - desna pozicija
@return    leftDelim - vraanje stringa u danom rasponu
*/
char* VratiOdPozicijeDoPozicije(char* string, int leftPosition, int rightPosition) {
    4168:	cf 92       	push	r12
    416a:	df 92       	push	r13
    416c:	ef 92       	push	r14
    416e:	ff 92       	push	r15
    4170:	0f 93       	push	r16
    4172:	1f 93       	push	r17
    4174:	cf 93       	push	r28
    4176:	df 93       	push	r29
    4178:	c8 2e       	mov	r12, r24
    417a:	d9 2e       	mov	r13, r25
    417c:	7b 01       	movw	r14, r22
    417e:	8a 01       	movw	r16, r20
	
	leftDelim = NULL;
	
	int counter = 0;
	
	if(leftPosition > rightPosition)
    4180:	46 17       	cp	r20, r22
    4182:	57 07       	cpc	r21, r23
    4184:	6c f1       	brlt	.+90     	; 0x41e0 <VratiOdPozicijeDoPozicije+0x78>
	return NULL;
	
	haystack = (char*) malloc(strlen(string));
    4186:	e8 2f       	mov	r30, r24
    4188:	f9 2f       	mov	r31, r25
    418a:	df 01       	movw	r26, r30
    418c:	0d 90       	ld	r0, X+
    418e:	00 20       	and	r0, r0
    4190:	e9 f7       	brne	.-6      	; 0x418c <VratiOdPozicijeDoPozicije+0x24>
    4192:	11 97       	sbiw	r26, 0x01	; 1
    4194:	cd 01       	movw	r24, r26
    4196:	8e 1b       	sub	r24, r30
    4198:	9f 0b       	sbc	r25, r31
    419a:	0e 94 23 21 	call	0x4246	; 0x4246 <malloc>
    419e:	c8 2f       	mov	r28, r24
    41a0:	d9 2f       	mov	r29, r25
	strcpy(haystack, string);
    41a2:	6c 2d       	mov	r22, r12
    41a4:	7d 2d       	mov	r23, r13
    41a6:	ce 01       	movw	r24, r28
    41a8:	0e 94 74 22 	call	0x44e8	; 0x44e8 <strcpy>
	
	while(haystack != '\0') {
    41ac:	20 97       	sbiw	r28, 0x00	; 0
    41ae:	d9 f0       	breq	.+54     	; 0x41e6 <VratiOdPozicijeDoPozicije+0x7e>
	
	char *haystack, *leftDelim;
	
	leftDelim = NULL;
	
	int counter = 0;
    41b0:	20 e0       	ldi	r18, 0x00	; 0
    41b2:	30 e0       	ldi	r19, 0x00	; 0
*/
char* VratiOdPozicijeDoPozicije(char* string, int leftPosition, int rightPosition) {
	
	char *haystack, *leftDelim;
	
	leftDelim = NULL;
    41b4:	e0 e0       	ldi	r30, 0x00	; 0
    41b6:	f0 e0       	ldi	r31, 0x00	; 0
	
	haystack = (char*) malloc(strlen(string));
	strcpy(haystack, string);
	
	while(haystack != '\0') {
		if(counter == (leftPosition-1)) {
    41b8:	b7 01       	movw	r22, r14
    41ba:	61 50       	subi	r22, 0x01	; 1
    41bc:	71 09       	sbc	r23, r1
			leftDelim = haystack;
			} else if(counter == (rightPosition-1)) {
    41be:	a8 01       	movw	r20, r16
    41c0:	41 50       	subi	r20, 0x01	; 1
    41c2:	51 09       	sbc	r21, r1
	
	haystack = (char*) malloc(strlen(string));
	strcpy(haystack, string);
	
	while(haystack != '\0') {
		if(counter == (leftPosition-1)) {
    41c4:	62 17       	cp	r22, r18
    41c6:	73 07       	cpc	r23, r19
    41c8:	29 f0       	breq	.+10     	; 0x41d4 <VratiOdPozicijeDoPozicije+0x6c>
			leftDelim = haystack;
			} else if(counter == (rightPosition-1)) {
    41ca:	42 17       	cp	r20, r18
    41cc:	53 07       	cpc	r21, r19
    41ce:	19 f4       	brne	.+6      	; 0x41d6 <VratiOdPozicijeDoPozicije+0x6e>
				*(haystack+1) = '\0';
    41d0:	19 82       	std	Y+1, r1	; 0x01
				break;
    41d2:	0b c0       	rjmp	.+22     	; 0x41ea <VratiOdPozicijeDoPozicije+0x82>
	
	haystack = (char*) malloc(strlen(string));
	strcpy(haystack, string);
	
	while(haystack != '\0') {
		if(counter == (leftPosition-1)) {
    41d4:	fe 01       	movw	r30, r28
			leftDelim = haystack;
			} else if(counter == (rightPosition-1)) {
				*(haystack+1) = '\0';
				break;
		}
		counter++;
    41d6:	2f 5f       	subi	r18, 0xFF	; 255
    41d8:	3f 4f       	sbci	r19, 0xFF	; 255
		haystack++;
    41da:	21 96       	adiw	r28, 0x01	; 1
	return NULL;
	
	haystack = (char*) malloc(strlen(string));
	strcpy(haystack, string);
	
	while(haystack != '\0') {
    41dc:	99 f7       	brne	.-26     	; 0x41c4 <VratiOdPozicijeDoPozicije+0x5c>
    41de:	05 c0       	rjmp	.+10     	; 0x41ea <VratiOdPozicijeDoPozicije+0x82>
	leftDelim = NULL;
	
	int counter = 0;
	
	if(leftPosition > rightPosition)
	return NULL;
    41e0:	e0 e0       	ldi	r30, 0x00	; 0
    41e2:	f0 e0       	ldi	r31, 0x00	; 0
    41e4:	02 c0       	rjmp	.+4      	; 0x41ea <VratiOdPozicijeDoPozicije+0x82>
*/
char* VratiOdPozicijeDoPozicije(char* string, int leftPosition, int rightPosition) {
	
	char *haystack, *leftDelim;
	
	leftDelim = NULL;
    41e6:	e0 e0       	ldi	r30, 0x00	; 0
    41e8:	f0 e0       	ldi	r31, 0x00	; 0
		haystack++;
	}
	
	return leftDelim;
	
}
    41ea:	8e 2f       	mov	r24, r30
    41ec:	9f 2f       	mov	r25, r31
    41ee:	df 91       	pop	r29
    41f0:	cf 91       	pop	r28
    41f2:	1f 91       	pop	r17
    41f4:	0f 91       	pop	r16
    41f6:	ff 90       	pop	r15
    41f8:	ef 90       	pop	r14
    41fa:	df 90       	pop	r13
    41fc:	cf 90       	pop	r12
    41fe:	08 95       	ret

00004200 <FormatirajDijakritickeNaZdravstvenoj>:

/**
@brief Funkcija koja nepoznate simbole formatira u pripadajua slova.
@param haystack - string koji se eli formatirati
*/
void FormatirajDijakritickeNaZdravstvenoj(char* haystack) {
    4200:	fc 01       	movw	r30, r24
	
	while(*haystack != '\0') {
    4202:	80 81       	ld	r24, Z
    4204:	88 23       	and	r24, r24
    4206:	a1 f0       	breq	.+40     	; 0x4230 <FormatirajDijakritickeNaZdravstvenoj+0x30>
		if(*haystack == '@')
		*haystack = 'Z';
    4208:	3a e5       	ldi	r19, 0x5A	; 90
		if(*haystack == ']')
		*haystack = 'C';
    420a:	23 e4       	ldi	r18, 0x43	; 67
		if(*haystack == '[')
		*haystack = 'S';
    420c:	93 e5       	ldi	r25, 0x53	; 83
@param haystack - string koji se eli formatirati
*/
void FormatirajDijakritickeNaZdravstvenoj(char* haystack) {
	
	while(*haystack != '\0') {
		if(*haystack == '@')
    420e:	80 34       	cpi	r24, 0x40	; 64
    4210:	11 f4       	brne	.+4      	; 0x4216 <FormatirajDijakritickeNaZdravstvenoj+0x16>
		*haystack = 'Z';
    4212:	30 83       	st	Z, r19
    4214:	05 c0       	rjmp	.+10     	; 0x4220 <FormatirajDijakritickeNaZdravstvenoj+0x20>
		if(*haystack == ']')
    4216:	80 81       	ld	r24, Z
    4218:	8d 35       	cpi	r24, 0x5D	; 93
    421a:	11 f4       	brne	.+4      	; 0x4220 <FormatirajDijakritickeNaZdravstvenoj+0x20>
		*haystack = 'C';
    421c:	20 83       	st	Z, r18
    421e:	04 c0       	rjmp	.+8      	; 0x4228 <FormatirajDijakritickeNaZdravstvenoj+0x28>
		if(*haystack == '[')
    4220:	80 81       	ld	r24, Z
    4222:	8b 35       	cpi	r24, 0x5B	; 91
    4224:	09 f4       	brne	.+2      	; 0x4228 <FormatirajDijakritickeNaZdravstvenoj+0x28>
		*haystack = 'S';
    4226:	90 83       	st	Z, r25
		haystack++;
    4228:	31 96       	adiw	r30, 0x01	; 1
@brief Funkcija koja nepoznate simbole formatira u pripadajua slova.
@param haystack - string koji se eli formatirati
*/
void FormatirajDijakritickeNaZdravstvenoj(char* haystack) {
	
	while(*haystack != '\0') {
    422a:	80 81       	ld	r24, Z
    422c:	81 11       	cpse	r24, r1
    422e:	ef cf       	rjmp	.-34     	; 0x420e <FormatirajDijakritickeNaZdravstvenoj+0xe>
    4230:	08 95       	ret

00004232 <UsartInit>:
UCSRB registar: - RXEN - postavljanje ovog bita u jedinicu omoguava USART receiver
				- TXEN - postavljanje ovog bita u jedinicu omoguava USART transmitter
*/
void UsartInit(uint16_t ubrrValue) {

	UBRRL = ubrrValue; 
    4232:	89 b9       	out	0x09, r24	; 9
	UCSRC = (1<<URSEL)|(1<<UCSZ0)|(1<<UCSZ1);
    4234:	86 e8       	ldi	r24, 0x86	; 134
    4236:	80 bd       	out	0x20, r24	; 32
	UCSRB = (1<<RXEN)|(1<<TXEN);
    4238:	88 e1       	ldi	r24, 0x18	; 24
    423a:	8a b9       	out	0x0a, r24	; 10
    423c:	08 95       	ret

0000423e <USARTReadChar>:
Funkcija za itanje karaktera.
@brief Funkcija "eka podatke" u receive bufferu tako da provjerava RXC zastavicu, prije itanja buffera i vraanja povratne vrijednosti.
*/
char USARTReadChar() {
	// Wait for data to be received
	while(!(UCSRA & (1<<RXC)))
    423e:	5f 9b       	sbis	0x0b, 7	; 11
    4240:	fe cf       	rjmp	.-4      	; 0x423e <USARTReadChar>
	{
		//Do nothing

	}
	// Get and return received data from buffer
	return UDR;
    4242:	8c b1       	in	r24, 0x0c	; 12

}
    4244:	08 95       	ret

00004246 <malloc>:
    4246:	0f 93       	push	r16
    4248:	1f 93       	push	r17
    424a:	cf 93       	push	r28
    424c:	df 93       	push	r29
    424e:	82 30       	cpi	r24, 0x02	; 2
    4250:	91 05       	cpc	r25, r1
    4252:	10 f4       	brcc	.+4      	; 0x4258 <malloc+0x12>
    4254:	82 e0       	ldi	r24, 0x02	; 2
    4256:	90 e0       	ldi	r25, 0x00	; 0
    4258:	e0 91 eb 02 	lds	r30, 0x02EB
    425c:	f0 91 ec 02 	lds	r31, 0x02EC
    4260:	20 e0       	ldi	r18, 0x00	; 0
    4262:	30 e0       	ldi	r19, 0x00	; 0
    4264:	c0 e0       	ldi	r28, 0x00	; 0
    4266:	d0 e0       	ldi	r29, 0x00	; 0
    4268:	23 c0       	rjmp	.+70     	; 0x42b0 <malloc+0x6a>
    426a:	40 81       	ld	r20, Z
    426c:	51 81       	ldd	r21, Z+1	; 0x01
    426e:	48 17       	cp	r20, r24
    4270:	59 07       	cpc	r21, r25
    4272:	a8 f0       	brcs	.+42     	; 0x429e <malloc+0x58>
    4274:	48 17       	cp	r20, r24
    4276:	59 07       	cpc	r21, r25
    4278:	61 f4       	brne	.+24     	; 0x4292 <malloc+0x4c>
    427a:	82 81       	ldd	r24, Z+2	; 0x02
    427c:	93 81       	ldd	r25, Z+3	; 0x03
    427e:	20 97       	sbiw	r28, 0x00	; 0
    4280:	19 f0       	breq	.+6      	; 0x4288 <malloc+0x42>
    4282:	9b 83       	std	Y+3, r25	; 0x03
    4284:	8a 83       	std	Y+2, r24	; 0x02
    4286:	2e c0       	rjmp	.+92     	; 0x42e4 <malloc+0x9e>
    4288:	90 93 ec 02 	sts	0x02EC, r25
    428c:	80 93 eb 02 	sts	0x02EB, r24
    4290:	29 c0       	rjmp	.+82     	; 0x42e4 <malloc+0x9e>
    4292:	21 15       	cp	r18, r1
    4294:	31 05       	cpc	r19, r1
    4296:	29 f0       	breq	.+10     	; 0x42a2 <malloc+0x5c>
    4298:	42 17       	cp	r20, r18
    429a:	53 07       	cpc	r21, r19
    429c:	10 f0       	brcs	.+4      	; 0x42a2 <malloc+0x5c>
    429e:	a9 01       	movw	r20, r18
    42a0:	02 c0       	rjmp	.+4      	; 0x42a6 <malloc+0x60>
    42a2:	be 01       	movw	r22, r28
    42a4:	df 01       	movw	r26, r30
    42a6:	02 81       	ldd	r16, Z+2	; 0x02
    42a8:	13 81       	ldd	r17, Z+3	; 0x03
    42aa:	ef 01       	movw	r28, r30
    42ac:	9a 01       	movw	r18, r20
    42ae:	f8 01       	movw	r30, r16
    42b0:	30 97       	sbiw	r30, 0x00	; 0
    42b2:	d9 f6       	brne	.-74     	; 0x426a <malloc+0x24>
    42b4:	21 15       	cp	r18, r1
    42b6:	31 05       	cpc	r19, r1
    42b8:	09 f1       	breq	.+66     	; 0x42fc <malloc+0xb6>
    42ba:	28 1b       	sub	r18, r24
    42bc:	39 0b       	sbc	r19, r25
    42be:	24 30       	cpi	r18, 0x04	; 4
    42c0:	31 05       	cpc	r19, r1
    42c2:	90 f4       	brcc	.+36     	; 0x42e8 <malloc+0xa2>
    42c4:	12 96       	adiw	r26, 0x02	; 2
    42c6:	8d 91       	ld	r24, X+
    42c8:	9c 91       	ld	r25, X
    42ca:	13 97       	sbiw	r26, 0x03	; 3
    42cc:	61 15       	cp	r22, r1
    42ce:	71 05       	cpc	r23, r1
    42d0:	21 f0       	breq	.+8      	; 0x42da <malloc+0x94>
    42d2:	fb 01       	movw	r30, r22
    42d4:	93 83       	std	Z+3, r25	; 0x03
    42d6:	82 83       	std	Z+2, r24	; 0x02
    42d8:	04 c0       	rjmp	.+8      	; 0x42e2 <malloc+0x9c>
    42da:	90 93 ec 02 	sts	0x02EC, r25
    42de:	80 93 eb 02 	sts	0x02EB, r24
    42e2:	fd 01       	movw	r30, r26
    42e4:	32 96       	adiw	r30, 0x02	; 2
    42e6:	44 c0       	rjmp	.+136    	; 0x4370 <malloc+0x12a>
    42e8:	fd 01       	movw	r30, r26
    42ea:	e2 0f       	add	r30, r18
    42ec:	f3 1f       	adc	r31, r19
    42ee:	81 93       	st	Z+, r24
    42f0:	91 93       	st	Z+, r25
    42f2:	22 50       	subi	r18, 0x02	; 2
    42f4:	31 09       	sbc	r19, r1
    42f6:	2d 93       	st	X+, r18
    42f8:	3c 93       	st	X, r19
    42fa:	3a c0       	rjmp	.+116    	; 0x4370 <malloc+0x12a>
    42fc:	20 91 e9 02 	lds	r18, 0x02E9
    4300:	30 91 ea 02 	lds	r19, 0x02EA
    4304:	23 2b       	or	r18, r19
    4306:	41 f4       	brne	.+16     	; 0x4318 <malloc+0xd2>
    4308:	20 91 62 00 	lds	r18, 0x0062
    430c:	30 91 63 00 	lds	r19, 0x0063
    4310:	30 93 ea 02 	sts	0x02EA, r19
    4314:	20 93 e9 02 	sts	0x02E9, r18
    4318:	20 91 60 00 	lds	r18, 0x0060
    431c:	30 91 61 00 	lds	r19, 0x0061
    4320:	21 15       	cp	r18, r1
    4322:	31 05       	cpc	r19, r1
    4324:	41 f4       	brne	.+16     	; 0x4336 <malloc+0xf0>
    4326:	2d b7       	in	r18, 0x3d	; 61
    4328:	3e b7       	in	r19, 0x3e	; 62
    432a:	40 91 64 00 	lds	r20, 0x0064
    432e:	50 91 65 00 	lds	r21, 0x0065
    4332:	24 1b       	sub	r18, r20
    4334:	35 0b       	sbc	r19, r21
    4336:	e0 91 e9 02 	lds	r30, 0x02E9
    433a:	f0 91 ea 02 	lds	r31, 0x02EA
    433e:	e2 17       	cp	r30, r18
    4340:	f3 07       	cpc	r31, r19
    4342:	a0 f4       	brcc	.+40     	; 0x436c <malloc+0x126>
    4344:	2e 1b       	sub	r18, r30
    4346:	3f 0b       	sbc	r19, r31
    4348:	28 17       	cp	r18, r24
    434a:	39 07       	cpc	r19, r25
    434c:	78 f0       	brcs	.+30     	; 0x436c <malloc+0x126>
    434e:	ac 01       	movw	r20, r24
    4350:	4e 5f       	subi	r20, 0xFE	; 254
    4352:	5f 4f       	sbci	r21, 0xFF	; 255
    4354:	24 17       	cp	r18, r20
    4356:	35 07       	cpc	r19, r21
    4358:	48 f0       	brcs	.+18     	; 0x436c <malloc+0x126>
    435a:	4e 0f       	add	r20, r30
    435c:	5f 1f       	adc	r21, r31
    435e:	50 93 ea 02 	sts	0x02EA, r21
    4362:	40 93 e9 02 	sts	0x02E9, r20
    4366:	81 93       	st	Z+, r24
    4368:	91 93       	st	Z+, r25
    436a:	02 c0       	rjmp	.+4      	; 0x4370 <malloc+0x12a>
    436c:	e0 e0       	ldi	r30, 0x00	; 0
    436e:	f0 e0       	ldi	r31, 0x00	; 0
    4370:	cf 01       	movw	r24, r30
    4372:	df 91       	pop	r29
    4374:	cf 91       	pop	r28
    4376:	1f 91       	pop	r17
    4378:	0f 91       	pop	r16
    437a:	08 95       	ret

0000437c <free>:
    437c:	ef 92       	push	r14
    437e:	ff 92       	push	r15
    4380:	0f 93       	push	r16
    4382:	1f 93       	push	r17
    4384:	cf 93       	push	r28
    4386:	df 93       	push	r29
    4388:	00 97       	sbiw	r24, 0x00	; 0
    438a:	09 f4       	brne	.+2      	; 0x438e <free+0x12>
    438c:	8f c0       	rjmp	.+286    	; 0x44ac <free+0x130>
    438e:	dc 01       	movw	r26, r24
    4390:	12 97       	sbiw	r26, 0x02	; 2
    4392:	13 96       	adiw	r26, 0x03	; 3
    4394:	1c 92       	st	X, r1
    4396:	1e 92       	st	-X, r1
    4398:	12 97       	sbiw	r26, 0x02	; 2
    439a:	e0 90 eb 02 	lds	r14, 0x02EB
    439e:	f0 90 ec 02 	lds	r15, 0x02EC
    43a2:	e1 14       	cp	r14, r1
    43a4:	f1 04       	cpc	r15, r1
    43a6:	89 f4       	brne	.+34     	; 0x43ca <free+0x4e>
    43a8:	2d 91       	ld	r18, X+
    43aa:	3c 91       	ld	r19, X
    43ac:	11 97       	sbiw	r26, 0x01	; 1
    43ae:	28 0f       	add	r18, r24
    43b0:	39 1f       	adc	r19, r25
    43b2:	80 91 e9 02 	lds	r24, 0x02E9
    43b6:	90 91 ea 02 	lds	r25, 0x02EA
    43ba:	82 17       	cp	r24, r18
    43bc:	93 07       	cpc	r25, r19
    43be:	89 f5       	brne	.+98     	; 0x4422 <free+0xa6>
    43c0:	b0 93 ea 02 	sts	0x02EA, r27
    43c4:	a0 93 e9 02 	sts	0x02E9, r26
    43c8:	71 c0       	rjmp	.+226    	; 0x44ac <free+0x130>
    43ca:	e7 01       	movw	r28, r14
    43cc:	20 e0       	ldi	r18, 0x00	; 0
    43ce:	30 e0       	ldi	r19, 0x00	; 0
    43d0:	01 c0       	rjmp	.+2      	; 0x43d4 <free+0x58>
    43d2:	ea 01       	movw	r28, r20
    43d4:	ca 17       	cp	r28, r26
    43d6:	db 07       	cpc	r29, r27
    43d8:	38 f4       	brcc	.+14     	; 0x43e8 <free+0x6c>
    43da:	4a 81       	ldd	r20, Y+2	; 0x02
    43dc:	5b 81       	ldd	r21, Y+3	; 0x03
    43de:	9e 01       	movw	r18, r28
    43e0:	41 15       	cp	r20, r1
    43e2:	51 05       	cpc	r21, r1
    43e4:	b1 f7       	brne	.-20     	; 0x43d2 <free+0x56>
    43e6:	22 c0       	rjmp	.+68     	; 0x442c <free+0xb0>
    43e8:	bc 01       	movw	r22, r24
    43ea:	62 50       	subi	r22, 0x02	; 2
    43ec:	71 09       	sbc	r23, r1
    43ee:	fb 01       	movw	r30, r22
    43f0:	d3 83       	std	Z+3, r29	; 0x03
    43f2:	c2 83       	std	Z+2, r28	; 0x02
    43f4:	00 81       	ld	r16, Z
    43f6:	11 81       	ldd	r17, Z+1	; 0x01
    43f8:	ac 01       	movw	r20, r24
    43fa:	40 0f       	add	r20, r16
    43fc:	51 1f       	adc	r21, r17
    43fe:	4c 17       	cp	r20, r28
    4400:	5d 07       	cpc	r21, r29
    4402:	61 f4       	brne	.+24     	; 0x441c <free+0xa0>
    4404:	48 81       	ld	r20, Y
    4406:	59 81       	ldd	r21, Y+1	; 0x01
    4408:	40 0f       	add	r20, r16
    440a:	51 1f       	adc	r21, r17
    440c:	4e 5f       	subi	r20, 0xFE	; 254
    440e:	5f 4f       	sbci	r21, 0xFF	; 255
    4410:	51 83       	std	Z+1, r21	; 0x01
    4412:	40 83       	st	Z, r20
    4414:	4a 81       	ldd	r20, Y+2	; 0x02
    4416:	5b 81       	ldd	r21, Y+3	; 0x03
    4418:	53 83       	std	Z+3, r21	; 0x03
    441a:	42 83       	std	Z+2, r20	; 0x02
    441c:	21 15       	cp	r18, r1
    441e:	31 05       	cpc	r19, r1
    4420:	29 f4       	brne	.+10     	; 0x442c <free+0xb0>
    4422:	b0 93 ec 02 	sts	0x02EC, r27
    4426:	a0 93 eb 02 	sts	0x02EB, r26
    442a:	40 c0       	rjmp	.+128    	; 0x44ac <free+0x130>
    442c:	f9 01       	movw	r30, r18
    442e:	b3 83       	std	Z+3, r27	; 0x03
    4430:	a2 83       	std	Z+2, r26	; 0x02
    4432:	e9 01       	movw	r28, r18
    4434:	69 91       	ld	r22, Y+
    4436:	79 91       	ld	r23, Y+
    4438:	c6 0f       	add	r28, r22
    443a:	d7 1f       	adc	r29, r23
    443c:	ac 17       	cp	r26, r28
    443e:	bd 07       	cpc	r27, r29
    4440:	79 f4       	brne	.+30     	; 0x4460 <free+0xe4>
    4442:	dc 01       	movw	r26, r24
    4444:	5e 91       	ld	r21, -X
    4446:	4e 91       	ld	r20, -X
    4448:	46 0f       	add	r20, r22
    444a:	57 1f       	adc	r21, r23
    444c:	4e 5f       	subi	r20, 0xFE	; 254
    444e:	5f 4f       	sbci	r21, 0xFF	; 255
    4450:	51 83       	std	Z+1, r21	; 0x01
    4452:	40 83       	st	Z, r20
    4454:	12 96       	adiw	r26, 0x02	; 2
    4456:	8d 91       	ld	r24, X+
    4458:	9c 91       	ld	r25, X
    445a:	13 97       	sbiw	r26, 0x03	; 3
    445c:	93 83       	std	Z+3, r25	; 0x03
    445e:	82 83       	std	Z+2, r24	; 0x02
    4460:	a0 e0       	ldi	r26, 0x00	; 0
    4462:	b0 e0       	ldi	r27, 0x00	; 0
    4464:	02 c0       	rjmp	.+4      	; 0x446a <free+0xee>
    4466:	d7 01       	movw	r26, r14
    4468:	7c 01       	movw	r14, r24
    446a:	f7 01       	movw	r30, r14
    446c:	82 81       	ldd	r24, Z+2	; 0x02
    446e:	93 81       	ldd	r25, Z+3	; 0x03
    4470:	00 97       	sbiw	r24, 0x00	; 0
    4472:	c9 f7       	brne	.-14     	; 0x4466 <free+0xea>
    4474:	c7 01       	movw	r24, r14
    4476:	02 96       	adiw	r24, 0x02	; 2
    4478:	20 81       	ld	r18, Z
    447a:	31 81       	ldd	r19, Z+1	; 0x01
    447c:	82 0f       	add	r24, r18
    447e:	93 1f       	adc	r25, r19
    4480:	20 91 e9 02 	lds	r18, 0x02E9
    4484:	30 91 ea 02 	lds	r19, 0x02EA
    4488:	28 17       	cp	r18, r24
    448a:	39 07       	cpc	r19, r25
    448c:	79 f4       	brne	.+30     	; 0x44ac <free+0x130>
    448e:	10 97       	sbiw	r26, 0x00	; 0
    4490:	29 f4       	brne	.+10     	; 0x449c <free+0x120>
    4492:	10 92 ec 02 	sts	0x02EC, r1
    4496:	10 92 eb 02 	sts	0x02EB, r1
    449a:	04 c0       	rjmp	.+8      	; 0x44a4 <free+0x128>
    449c:	13 96       	adiw	r26, 0x03	; 3
    449e:	1c 92       	st	X, r1
    44a0:	1e 92       	st	-X, r1
    44a2:	12 97       	sbiw	r26, 0x02	; 2
    44a4:	f0 92 ea 02 	sts	0x02EA, r15
    44a8:	e0 92 e9 02 	sts	0x02E9, r14
    44ac:	cd b7       	in	r28, 0x3d	; 61
    44ae:	de b7       	in	r29, 0x3e	; 62
    44b0:	e6 e0       	ldi	r30, 0x06	; 6
    44b2:	0c 94 d6 22 	jmp	0x45ac	; 0x45ac <__epilogue_restores__+0x18>

000044b6 <strtok>:
    44b6:	48 ee       	ldi	r20, 0xE8	; 232
    44b8:	51 e0       	ldi	r21, 0x01	; 1
    44ba:	0e 94 7b 22 	call	0x44f6	; 0x44f6 <strtok_r>
    44be:	08 95       	ret

000044c0 <strcat>:
    44c0:	fb 01       	movw	r30, r22
    44c2:	dc 01       	movw	r26, r24
    44c4:	0d 90       	ld	r0, X+
    44c6:	00 20       	and	r0, r0
    44c8:	e9 f7       	brne	.-6      	; 0x44c4 <strcat+0x4>
    44ca:	11 97       	sbiw	r26, 0x01	; 1
    44cc:	01 90       	ld	r0, Z+
    44ce:	0d 92       	st	X+, r0
    44d0:	00 20       	and	r0, r0
    44d2:	e1 f7       	brne	.-8      	; 0x44cc <strcat+0xc>
    44d4:	08 95       	ret

000044d6 <strcmp>:
    44d6:	fb 01       	movw	r30, r22
    44d8:	dc 01       	movw	r26, r24
    44da:	8d 91       	ld	r24, X+
    44dc:	01 90       	ld	r0, Z+
    44de:	80 19       	sub	r24, r0
    44e0:	01 10       	cpse	r0, r1
    44e2:	d9 f3       	breq	.-10     	; 0x44da <strcmp+0x4>
    44e4:	99 0b       	sbc	r25, r25
    44e6:	08 95       	ret

000044e8 <strcpy>:
    44e8:	fb 01       	movw	r30, r22
    44ea:	dc 01       	movw	r26, r24
    44ec:	01 90       	ld	r0, Z+
    44ee:	0d 92       	st	X+, r0
    44f0:	00 20       	and	r0, r0
    44f2:	e1 f7       	brne	.-8      	; 0x44ec <strcpy+0x4>
    44f4:	08 95       	ret

000044f6 <strtok_r>:
    44f6:	fa 01       	movw	r30, r20
    44f8:	a1 91       	ld	r26, Z+
    44fa:	b0 81       	ld	r27, Z
    44fc:	00 97       	sbiw	r24, 0x00	; 0
    44fe:	19 f4       	brne	.+6      	; 0x4506 <strtok_r+0x10>
    4500:	10 97       	sbiw	r26, 0x00	; 0
    4502:	e1 f0       	breq	.+56     	; 0x453c <strtok_r+0x46>
    4504:	cd 01       	movw	r24, r26
    4506:	dc 01       	movw	r26, r24
    4508:	cd 01       	movw	r24, r26
    450a:	0d 90       	ld	r0, X+
    450c:	00 20       	and	r0, r0
    450e:	11 f4       	brne	.+4      	; 0x4514 <strtok_r+0x1e>
    4510:	c0 01       	movw	r24, r0
    4512:	13 c0       	rjmp	.+38     	; 0x453a <strtok_r+0x44>
    4514:	fb 01       	movw	r30, r22
    4516:	21 91       	ld	r18, Z+
    4518:	22 23       	and	r18, r18
    451a:	19 f0       	breq	.+6      	; 0x4522 <strtok_r+0x2c>
    451c:	20 15       	cp	r18, r0
    451e:	d9 f7       	brne	.-10     	; 0x4516 <strtok_r+0x20>
    4520:	f3 cf       	rjmp	.-26     	; 0x4508 <strtok_r+0x12>
    4522:	fb 01       	movw	r30, r22
    4524:	21 91       	ld	r18, Z+
    4526:	20 15       	cp	r18, r0
    4528:	19 f4       	brne	.+6      	; 0x4530 <strtok_r+0x3a>
    452a:	1e 92       	st	-X, r1
    452c:	11 96       	adiw	r26, 0x01	; 1
    452e:	06 c0       	rjmp	.+12     	; 0x453c <strtok_r+0x46>
    4530:	22 23       	and	r18, r18
    4532:	c1 f7       	brne	.-16     	; 0x4524 <strtok_r+0x2e>
    4534:	0d 90       	ld	r0, X+
    4536:	00 20       	and	r0, r0
    4538:	a1 f7       	brne	.-24     	; 0x4522 <strtok_r+0x2c>
    453a:	d0 01       	movw	r26, r0
    453c:	fa 01       	movw	r30, r20
    453e:	a1 93       	st	Z+, r26
    4540:	b0 83       	st	Z, r27
    4542:	08 95       	ret

00004544 <__eerd_word_m32a>:
    4544:	a8 e1       	ldi	r26, 0x18	; 24
    4546:	b0 e0       	ldi	r27, 0x00	; 0
    4548:	42 e0       	ldi	r20, 0x02	; 2
    454a:	50 e0       	ldi	r21, 0x00	; 0
    454c:	0c 94 af 22 	jmp	0x455e	; 0x455e <__eerd_blraw_m32a>

00004550 <__eewr_word_m32a>:
    4550:	0e 94 bd 22 	call	0x457a	; 0x457a <__eewr_byte_m32a>
    4554:	27 2f       	mov	r18, r23
    4556:	0c 94 be 22 	jmp	0x457c	; 0x457c <__eewr_r18_m32a>

0000455a <__eerd_block_m32a>:
    455a:	dc 01       	movw	r26, r24
    455c:	cb 01       	movw	r24, r22

0000455e <__eerd_blraw_m32a>:
    455e:	fc 01       	movw	r30, r24
    4560:	e1 99       	sbic	0x1c, 1	; 28
    4562:	fe cf       	rjmp	.-4      	; 0x4560 <__eerd_blraw_m32a+0x2>
    4564:	06 c0       	rjmp	.+12     	; 0x4572 <__eerd_blraw_m32a+0x14>
    4566:	ff bb       	out	0x1f, r31	; 31
    4568:	ee bb       	out	0x1e, r30	; 30
    456a:	e0 9a       	sbi	0x1c, 0	; 28
    456c:	31 96       	adiw	r30, 0x01	; 1
    456e:	0d b2       	in	r0, 0x1d	; 29
    4570:	0d 92       	st	X+, r0
    4572:	41 50       	subi	r20, 0x01	; 1
    4574:	50 40       	sbci	r21, 0x00	; 0
    4576:	b8 f7       	brcc	.-18     	; 0x4566 <__eerd_blraw_m32a+0x8>
    4578:	08 95       	ret

0000457a <__eewr_byte_m32a>:
    457a:	26 2f       	mov	r18, r22

0000457c <__eewr_r18_m32a>:
    457c:	e1 99       	sbic	0x1c, 1	; 28
    457e:	fe cf       	rjmp	.-4      	; 0x457c <__eewr_r18_m32a>
    4580:	9f bb       	out	0x1f, r25	; 31
    4582:	8e bb       	out	0x1e, r24	; 30
    4584:	2d bb       	out	0x1d, r18	; 29
    4586:	0f b6       	in	r0, 0x3f	; 63
    4588:	f8 94       	cli
    458a:	e2 9a       	sbi	0x1c, 2	; 28
    458c:	e1 9a       	sbi	0x1c, 1	; 28
    458e:	0f be       	out	0x3f, r0	; 63
    4590:	01 96       	adiw	r24, 0x01	; 1
    4592:	08 95       	ret

00004594 <__epilogue_restores__>:
    4594:	2a 88       	ldd	r2, Y+18	; 0x12
    4596:	39 88       	ldd	r3, Y+17	; 0x11
    4598:	48 88       	ldd	r4, Y+16	; 0x10
    459a:	5f 84       	ldd	r5, Y+15	; 0x0f
    459c:	6e 84       	ldd	r6, Y+14	; 0x0e
    459e:	7d 84       	ldd	r7, Y+13	; 0x0d
    45a0:	8c 84       	ldd	r8, Y+12	; 0x0c
    45a2:	9b 84       	ldd	r9, Y+11	; 0x0b
    45a4:	aa 84       	ldd	r10, Y+10	; 0x0a
    45a6:	b9 84       	ldd	r11, Y+9	; 0x09
    45a8:	c8 84       	ldd	r12, Y+8	; 0x08
    45aa:	df 80       	ldd	r13, Y+7	; 0x07
    45ac:	ee 80       	ldd	r14, Y+6	; 0x06
    45ae:	fd 80       	ldd	r15, Y+5	; 0x05
    45b0:	0c 81       	ldd	r16, Y+4	; 0x04
    45b2:	1b 81       	ldd	r17, Y+3	; 0x03
    45b4:	aa 81       	ldd	r26, Y+2	; 0x02
    45b6:	b9 81       	ldd	r27, Y+1	; 0x01
    45b8:	ce 0f       	add	r28, r30
    45ba:	d1 1d       	adc	r29, r1
    45bc:	0f b6       	in	r0, 0x3f	; 63
    45be:	f8 94       	cli
    45c0:	de bf       	out	0x3e, r29	; 62
    45c2:	0f be       	out	0x3f, r0	; 63
    45c4:	cd bf       	out	0x3d, r28	; 61
    45c6:	ed 01       	movw	r28, r26
    45c8:	08 95       	ret

000045ca <_exit>:
    45ca:	f8 94       	cli

000045cc <__stop_program>:
    45cc:	ff cf       	rjmp	.-2      	; 0x45cc <__stop_program>
